
encl.so：     文件格式 elf64-x86-64


Disassembly of section .plt:

0000000000002000 <.plt>:
    2000:	ff 35 b2 9f 03 00    	push   0x39fb2(%rip)        # 3bfb8 <_GLOBAL_OFFSET_TABLE_+0x8>
    2006:	ff 25 b4 9f 03 00    	jmp    *0x39fb4(%rip)        # 3bfc0 <_GLOBAL_OFFSET_TABLE_+0x10>
    200c:	0f 1f 40 00          	nopl   0x0(%rax)

Disassembly of section .plt.got:

0000000000002010 <_Z9pcl_entryPvS_@plt>:
    2010:	ff 25 b2 9f 03 00    	jmp    *0x39fb2(%rip)        # 3bfc8 <_Z9pcl_entryPvS_>
    2016:	66 90                	xchg   %ax,%ax

Disassembly of section .text:

0000000000002040 <trts_access_version_dummy1>:
    2040:	f3 0f 1e fa          	endbr64 
    2044:	48 8d 05 e5 a1 03 00 	lea    0x3a1e5(%rip),%rax        # 3c230 <sgx_trts_version>
    204b:	c6 00 73             	movb   $0x73,(%rax)
    204e:	c3                   	ret    
    204f:	90                   	nop

0000000000002050 <tstdc_access_version_dummy1>:
    2050:	f3 0f 1e fa          	endbr64 
    2054:	c6 05 95 c0 03 00 73 	movb   $0x73,0x3c095(%rip)        # 3e0f0 <sgx_tstdc_version>
    205b:	48 8d 05 8e c0 03 00 	lea    0x3c08e(%rip),%rax        # 3e0f0 <sgx_tstdc_version>
    2062:	c3                   	ret    
    2063:	66 2e 0f 1f 84 00 00 	cs nopw 0x0(%rax,%rax,1)
    206a:	00 00 00 
    206d:	0f 1f 00             	nopl   (%rax)

0000000000002070 <tcrypto_access_version_dummy1>:
    2070:	f3 0f 1e fa          	endbr64 
    2074:	c6 05 c5 c0 03 00 73 	movb   $0x73,0x3c0c5(%rip)        # 3e140 <sgx_tcrypto_version>
    207b:	48 8d 05 be c0 03 00 	lea    0x3c0be(%rip),%rax        # 3e140 <sgx_tcrypto_version>
    2082:	c3                   	ret    
    2083:	66 2e 0f 1f 84 00 00 	cs nopw 0x0(%rax,%rax,1)
    208a:	00 00 00 
    208d:	0f 1f 00             	nopl   (%rax)

0000000000002090 <tservice_access_version_dummy1>:
    2090:	f3 0f 1e fa          	endbr64 
    2094:	c6 05 25 d4 03 00 73 	movb   $0x73,0x3d425(%rip)        # 3f4c0 <sgx_tservice_version>
    209b:	48 8d 05 1e d4 03 00 	lea    0x3d41e(%rip),%rax        # 3f4c0 <sgx_tservice_version>
    20a2:	c3                   	ret    

00000000000020a3 <eprintf>:
    20a3:	55                   	push   %rbp
    20a4:	49 89 fa             	mov    %rdi,%r10
    20a7:	48 81 ec c0 04 00 00 	sub    $0x4c0,%rsp
    20ae:	48 89 b4 24 18 04 00 	mov    %rsi,0x418(%rsp)
    20b5:	00 
    20b6:	48 89 94 24 20 04 00 	mov    %rdx,0x420(%rsp)
    20bd:	00 
    20be:	48 89 8c 24 28 04 00 	mov    %rcx,0x428(%rsp)
    20c5:	00 
    20c6:	4c 89 84 24 30 04 00 	mov    %r8,0x430(%rsp)
    20cd:	00 
    20ce:	4c 89 8c 24 38 04 00 	mov    %r9,0x438(%rsp)
    20d5:	00 
    20d6:	84 c0                	test   %al,%al
    20d8:	74 48                	je     2122 <eprintf+0x7f>
    20da:	c5 f8 29 84 24 40 04 	vmovaps %xmm0,0x440(%rsp)
    20e1:	00 00 
    20e3:	c5 f8 29 8c 24 50 04 	vmovaps %xmm1,0x450(%rsp)
    20ea:	00 00 
    20ec:	c5 f8 29 94 24 60 04 	vmovaps %xmm2,0x460(%rsp)
    20f3:	00 00 
    20f5:	c5 f8 29 9c 24 70 04 	vmovaps %xmm3,0x470(%rsp)
    20fc:	00 00 
    20fe:	c5 f8 29 a4 24 80 04 	vmovaps %xmm4,0x480(%rsp)
    2105:	00 00 
    2107:	c5 f8 29 ac 24 90 04 	vmovaps %xmm5,0x490(%rsp)
    210e:	00 00 
    2110:	c5 f8 29 b4 24 a0 04 	vmovaps %xmm6,0x4a0(%rsp)
    2117:	00 00 
    2119:	c5 f8 29 bc 24 b0 04 	vmovaps %xmm7,0x4b0(%rsp)
    2120:	00 00 
    2122:	64 48 8b 04 25 28 00 	mov    %fs:0x28,%rax
    2129:	00 00 
    212b:	48 89 84 24 08 04 00 	mov    %rax,0x408(%rsp)
    2132:	00 
    2133:	31 c0                	xor    %eax,%eax
    2135:	48 8d 7c 24 30       	lea    0x30(%rsp),%rdi
    213a:	b9 f6 00 00 00       	mov    $0xf6,%ecx
    213f:	48 8d 6c 24 20       	lea    0x20(%rsp),%rbp
    2144:	c5 f9 ef c0          	vpxor  %xmm0,%xmm0,%xmm0
    2148:	4c 89 d2             	mov    %r10,%rdx
    214b:	f3 ab                	rep stos %eax,%es:(%rdi)
    214d:	48 8d 84 24 d0 04 00 	lea    0x4d0(%rsp),%rax
    2154:	00 
    2155:	48 89 44 24 10       	mov    %rax,0x10(%rsp)
    215a:	48 89 ef             	mov    %rbp,%rdi
    215d:	48 8d 84 24 10 04 00 	lea    0x410(%rsp),%rax
    2164:	00 
    2165:	48 8d 4c 24 08       	lea    0x8(%rsp),%rcx
    216a:	be e8 03 00 00       	mov    $0x3e8,%esi
    216f:	c7 44 24 08 08 00 00 	movl   $0x8,0x8(%rsp)
    2176:	00 
    2177:	c7 44 24 0c 30 00 00 	movl   $0x30,0xc(%rsp)
    217e:	00 
    217f:	48 89 44 24 18       	mov    %rax,0x18(%rsp)
    2184:	c5 fa 7f 44 24 20    	vmovdqu %xmm0,0x20(%rsp)
    218a:	e8 31 87 00 00       	call   a8c0 <vsnprintf>
    218f:	48 89 ef             	mov    %rbp,%rdi
    2192:	e8 71 03 00 00       	call   2508 <ocall_print_string>
    2197:	48 8b 84 24 08 04 00 	mov    0x408(%rsp),%rax
    219e:	00 
    219f:	64 48 2b 04 25 28 00 	sub    %fs:0x28,%rax
    21a6:	00 00 
    21a8:	74 05                	je     21af <eprintf+0x10c>
    21aa:	e8 a1 c6 00 00       	call   e850 <__stack_chk_fail>
    21af:	48 81 c4 c0 04 00 00 	add    $0x4c0,%rsp
    21b6:	5d                   	pop    %rbp
    21b7:	c3                   	ret    

00000000000021b8 <check_ipp_features>:
    21b8:	f3 0f 1e fa          	endbr64 
    21bc:	53                   	push   %rbx
    21bd:	e8 1e 65 01 00       	call   186e0 <ippcpGetEnabledCpuFeatures>
    21c2:	48 89 c3             	mov    %rax,%rbx
    21c5:	a8 04                	test   $0x4,%al
    21c7:	74 0e                	je     21d7 <check_ipp_features+0x1f>
    21c9:	48 8d 3d 30 1e 03 00 	lea    0x31e30(%rip),%rdi        # 34000 <second_phase+0x247>
    21d0:	31 c0                	xor    %eax,%eax
    21d2:	e8 cc fe ff ff       	call   20a3 <eprintf>
    21d7:	f6 c3 08             	test   $0x8,%bl
    21da:	74 0e                	je     21ea <check_ipp_features+0x32>
    21dc:	48 8d 3d 2e 1e 03 00 	lea    0x31e2e(%rip),%rdi        # 34011 <second_phase+0x258>
    21e3:	31 c0                	xor    %eax,%eax
    21e5:	e8 b9 fe ff ff       	call   20a3 <eprintf>
    21ea:	f6 c3 10             	test   $0x10,%bl
    21ed:	74 0e                	je     21fd <check_ipp_features+0x45>
    21ef:	48 8d 3d 1a 1e 03 00 	lea    0x31e1a(%rip),%rdi        # 34010 <second_phase+0x257>
    21f6:	31 c0                	xor    %eax,%eax
    21f8:	e8 a6 fe ff ff       	call   20a3 <eprintf>
    21fd:	f6 c3 40             	test   $0x40,%bl
    2200:	74 0e                	je     2210 <check_ipp_features+0x58>
    2202:	48 8d 3d 18 1e 03 00 	lea    0x31e18(%rip),%rdi        # 34021 <second_phase+0x268>
    2209:	31 c0                	xor    %eax,%eax
    220b:	e8 93 fe ff ff       	call   20a3 <eprintf>
    2210:	f6 c3 80             	test   $0x80,%bl
    2213:	74 0e                	je     2223 <check_ipp_features+0x6b>
    2215:	48 8d 3d 17 1e 03 00 	lea    0x31e17(%rip),%rdi        # 34033 <second_phase+0x27a>
    221c:	31 c0                	xor    %eax,%eax
    221e:	e8 80 fe ff ff       	call   20a3 <eprintf>
    2223:	0f ba e3 08          	bt     $0x8,%ebx
    2227:	73 0e                	jae    2237 <check_ipp_features+0x7f>
    2229:	48 8d 3d 15 1e 03 00 	lea    0x31e15(%rip),%rdi        # 34045 <second_phase+0x28c>
    2230:	31 c0                	xor    %eax,%eax
    2232:	e8 6c fe ff ff       	call   20a3 <eprintf>
    2237:	0f ba e3 0f          	bt     $0xf,%ebx
    223b:	73 0f                	jae    224c <check_ipp_features+0x94>
    223d:	48 8d 3d 10 1e 03 00 	lea    0x31e10(%rip),%rdi        # 34054 <second_phase+0x29b>
    2244:	31 c0                	xor    %eax,%eax
    2246:	5b                   	pop    %rbx
    2247:	e9 57 fe ff ff       	jmp    20a3 <eprintf>
    224c:	5b                   	pop    %rbx
    224d:	c3                   	ret    

000000000000224e <SHA512_ecall>:
    224e:	f3 0f 1e fa          	endbr64 
    2252:	55                   	push   %rbp
    2253:	48 89 e5             	mov    %rsp,%rbp
    2256:	41 57                	push   %r15
    2258:	41 56                	push   %r14
    225a:	41 55                	push   %r13
    225c:	41 54                	push   %r12
    225e:	53                   	push   %rbx
    225f:	48 81 ec 00 10 00 00 	sub    $0x1000,%rsp
    2266:	48 83 0c 24 00       	orq    $0x0,(%rsp)
    226b:	48 81 ec 00 10 00 00 	sub    $0x1000,%rsp
    2272:	48 83 0c 24 00       	orq    $0x0,(%rsp)
    2277:	48 81 ec a8 00 00 00 	sub    $0xa8,%rsp
    227e:	48 8d 35 04 1e 03 00 	lea    0x31e04(%rip),%rsi        # 34089 <second_phase+0x2d0>
    2285:	b9 10 00 00 00       	mov    $0x10,%ecx
    228a:	64 48 8b 04 25 28 00 	mov    %fs:0x28,%rax
    2291:	00 00 
    2293:	48 89 45 c8          	mov    %rax,-0x38(%rbp)
    2297:	31 c0                	xor    %eax,%eax
    2299:	c7 85 44 df ff ff 00 	movl   $0x0,-0x20bc(%rbp)
    22a0:	00 00 00 
    22a3:	48 89 fb             	mov    %rdi,%rbx
    22a6:	48 8d bd 88 df ff ff 	lea    -0x2078(%rbp),%rdi
    22ad:	f3 a5                	rep movsl %ds:(%rsi),%es:(%rdi)
    22af:	4c 8d bd 88 df ff ff 	lea    -0x2078(%rbp),%r15
    22b6:	4c 8d b5 c8 df ff ff 	lea    -0x2038(%rbp),%r14
    22bd:	be 24 00 00 00       	mov    $0x24,%esi
    22c2:	48 8d 3d 9b 1d 03 00 	lea    0x31d9b(%rip),%rdi        # 34064 <second_phase+0x2ab>
    22c9:	48 89 c8             	mov    %rcx,%rax
    22cc:	31 d2                	xor    %edx,%edx
    22ce:	48 f7 f6             	div    %rsi
    22d1:	48 ff c1             	inc    %rcx
    22d4:	8a 04 17             	mov    (%rdi,%rdx,1),%al
    22d7:	42 88 44 31 ff       	mov    %al,-0x1(%rcx,%r14,1)
    22dc:	48 81 f9 00 20 00 00 	cmp    $0x2000,%rcx
    22e3:	75 e4                	jne    22c9 <SHA512_ecall+0x7b>
    22e5:	48 8d 85 44 df ff ff 	lea    -0x20bc(%rbp),%rax
    22ec:	c7 85 3c df ff ff 0a 	movl   $0xa,-0x20c4(%rbp)
    22f3:	00 00 00 
    22f6:	48 89 85 30 df ff ff 	mov    %rax,-0x20d0(%rbp)
    22fd:	48 8b bd 30 df ff ff 	mov    -0x20d0(%rbp),%rdi
    2304:	49 89 e5             	mov    %rsp,%r13
    2307:	e8 74 75 01 00       	call   19880 <sgx_disp_ippsHashGetSize>
    230c:	48 63 85 44 df ff ff 	movslq -0x20bc(%rbp),%rax
    2313:	48 89 e1             	mov    %rsp,%rcx
    2316:	48 83 c0 0f          	add    $0xf,%rax
    231a:	48 89 c2             	mov    %rax,%rdx
    231d:	48 25 00 f0 ff ff    	and    $0xfffffffffffff000,%rax
    2323:	48 83 e2 f0          	and    $0xfffffffffffffff0,%rdx
    2327:	48 29 c1             	sub    %rax,%rcx
    232a:	48 39 cc             	cmp    %rcx,%rsp
    232d:	74 12                	je     2341 <SHA512_ecall+0xf3>
    232f:	48 81 ec 00 10 00 00 	sub    $0x1000,%rsp
    2336:	48 83 8c 24 f8 0f 00 	orq    $0x0,0xff8(%rsp)
    233d:	00 00 
    233f:	eb e9                	jmp    232a <SHA512_ecall+0xdc>
    2341:	48 89 d0             	mov    %rdx,%rax
    2344:	25 ff 0f 00 00       	and    $0xfff,%eax
    2349:	48 29 c4             	sub    %rax,%rsp
    234c:	48 85 c0             	test   %rax,%rax
    234f:	74 06                	je     2357 <SHA512_ecall+0x109>
    2351:	48 83 4c 04 f8 00    	orq    $0x0,-0x8(%rsp,%rax,1)
    2357:	be 04 00 00 00       	mov    $0x4,%esi
    235c:	48 89 e7             	mov    %rsp,%rdi
    235f:	e8 7c 75 01 00       	call   198e0 <sgx_disp_ippsHashInit>
    2364:	4c 8d a5 48 df ff ff 	lea    -0x20b8(%rbp),%r12
    236b:	48 89 e2             	mov    %rsp,%rdx
    236e:	be 00 20 00 00       	mov    $0x2000,%esi
    2373:	4c 89 f7             	mov    %r14,%rdi
    2376:	e8 f5 75 01 00       	call   19970 <sgx_disp_ippsHashUpdate>
    237b:	48 89 e6             	mov    %rsp,%rsi
    237e:	4c 89 e7             	mov    %r12,%rdi
    2381:	e8 6a 74 01 00       	call   197f0 <sgx_disp_ippsHashFinal>
    2386:	ba 40 00 00 00       	mov    $0x40,%edx
    238b:	4c 89 fe             	mov    %r15,%rsi
    238e:	4c 89 e7             	mov    %r12,%rdi
    2391:	e8 7a be 00 00       	call   e210 <memcmp>
    2396:	85 c0                	test   %eax,%eax
    2398:	74 16                	je     23b0 <SHA512_ecall+0x162>
    239a:	48 8d 7b 01          	lea    0x1(%rbx),%rdi
    239e:	b9 10 00 00 00       	mov    $0x10,%ecx
    23a3:	4c 89 e6             	mov    %r12,%rsi
    23a6:	c6 03 01             	movb   $0x1,(%rbx)
    23a9:	f3 a5                	rep movsl %ds:(%rsi),%es:(%rdi)
    23ab:	4c 89 ec             	mov    %r13,%rsp
    23ae:	eb 0f                	jmp    23bf <SHA512_ecall+0x171>
    23b0:	ff 8d 3c df ff ff    	decl   -0x20c4(%rbp)
    23b6:	4c 89 ec             	mov    %r13,%rsp
    23b9:	0f 85 3e ff ff ff    	jne    22fd <SHA512_ecall+0xaf>
    23bf:	48 8b 45 c8          	mov    -0x38(%rbp),%rax
    23c3:	64 48 2b 04 25 28 00 	sub    %fs:0x28,%rax
    23ca:	00 00 
    23cc:	74 05                	je     23d3 <SHA512_ecall+0x185>
    23ce:	e8 7d c4 00 00       	call   e850 <__stack_chk_fail>
    23d3:	48 8d 65 d8          	lea    -0x28(%rbp),%rsp
    23d7:	5b                   	pop    %rbx
    23d8:	41 5c                	pop    %r12
    23da:	41 5d                	pop    %r13
    23dc:	41 5e                	pop    %r14
    23de:	41 5f                	pop    %r15
    23e0:	31 c0                	xor    %eax,%eax
    23e2:	5d                   	pop    %rbp
    23e3:	c3                   	ret    

00000000000023e4 <sgx_SHA512_ecall>:
    23e4:	f3 0f 1e fa          	endbr64 
    23e8:	41 56                	push   %r14
    23ea:	41 55                	push   %r13
    23ec:	41 54                	push   %r12
    23ee:	55                   	push   %rbp
    23ef:	48 83 ec 28          	sub    $0x28,%rsp
    23f3:	48 85 ff             	test   %rdi,%rdi
    23f6:	75 0b                	jne    2403 <sgx_SHA512_ecall+0x1f>
    23f8:	41 bc 02 00 00 00    	mov    $0x2,%r12d
    23fe:	e9 f6 00 00 00       	jmp    24f9 <sgx_SHA512_ecall+0x115>
    2403:	be 10 00 00 00       	mov    $0x10,%esi
    2408:	49 89 fd             	mov    %rdi,%r13
    240b:	e8 00 19 00 00       	call   3d10 <sgx_is_outside_enclave>
    2410:	85 c0                	test   %eax,%eax
    2412:	74 e4                	je     23f8 <sgx_SHA512_ecall+0x14>
    2414:	0f ae e8             	lfence 
    2417:	48 8d 7c 24 10       	lea    0x10(%rsp),%rdi
    241c:	b9 10 00 00 00       	mov    $0x10,%ecx
    2421:	4c 89 ea             	mov    %r13,%rdx
    2424:	be 10 00 00 00       	mov    $0x10,%esi
    2429:	e8 62 c6 00 00       	call   ea90 <memcpy_s>
    242e:	85 c0                	test   %eax,%eax
    2430:	74 0b                	je     243d <sgx_SHA512_ecall+0x59>
    2432:	41 bc 01 00 00 00    	mov    $0x1,%r12d
    2438:	e9 bc 00 00 00       	jmp    24f9 <sgx_SHA512_ecall+0x115>
    243d:	4c 8b 74 24 18       	mov    0x18(%rsp),%r14
    2442:	4d 85 f6             	test   %r14,%r14
    2445:	75 0c                	jne    2453 <sgx_SHA512_ecall+0x6f>
    2447:	0f ae e8             	lfence 
    244a:	31 ed                	xor    %ebp,%ebp
    244c:	4d 85 f6             	test   %r14,%r14
    244f:	75 1e                	jne    246f <sgx_SHA512_ecall+0x8b>
    2451:	eb 40                	jmp    2493 <sgx_SHA512_ecall+0xaf>
    2453:	be 42 00 00 00       	mov    $0x42,%esi
    2458:	4c 89 f7             	mov    %r14,%rdi
    245b:	e8 b0 18 00 00       	call   3d10 <sgx_is_outside_enclave>
    2460:	41 bc 02 00 00 00    	mov    $0x2,%r12d
    2466:	85 c0                	test   %eax,%eax
    2468:	75 dd                	jne    2447 <sgx_SHA512_ecall+0x63>
    246a:	e9 8a 00 00 00       	jmp    24f9 <sgx_SHA512_ecall+0x115>
    246f:	bf 42 00 00 00       	mov    $0x42,%edi
    2474:	e8 57 8d 00 00       	call   b1d0 <dlmalloc>
    2479:	48 89 c5             	mov    %rax,%rbp
    247c:	41 bc 03 00 00 00    	mov    $0x3,%r12d
    2482:	48 85 c0             	test   %rax,%rax
    2485:	74 72                	je     24f9 <sgx_SHA512_ecall+0x115>
    2487:	b9 42 00 00 00       	mov    $0x42,%ecx
    248c:	31 c0                	xor    %eax,%eax
    248e:	48 89 ef             	mov    %rbp,%rdi
    2491:	f3 aa                	rep stos %al,%es:(%rdi)
    2493:	48 89 ef             	mov    %rbp,%rdi
    2496:	e8 b3 fd ff ff       	call   224e <SHA512_ecall>
    249b:	48 8d 54 24 0c       	lea    0xc(%rsp),%rdx
    24a0:	b9 04 00 00 00       	mov    $0x4,%ecx
    24a5:	be 04 00 00 00       	mov    $0x4,%esi
    24aa:	4c 89 ef             	mov    %r13,%rdi
    24ad:	89 44 24 0c          	mov    %eax,0xc(%rsp)
    24b1:	e8 5a c6 00 00       	call   eb10 <memcpy_verw_s>
    24b6:	85 c0                	test   %eax,%eax
    24b8:	75 28                	jne    24e2 <sgx_SHA512_ecall+0xfe>
    24ba:	45 31 e4             	xor    %r12d,%r12d
    24bd:	48 85 ed             	test   %rbp,%rbp
    24c0:	74 37                	je     24f9 <sgx_SHA512_ecall+0x115>
    24c2:	b9 42 00 00 00       	mov    $0x42,%ecx
    24c7:	48 89 ea             	mov    %rbp,%rdx
    24ca:	be 42 00 00 00       	mov    $0x42,%esi
    24cf:	4c 89 f7             	mov    %r14,%rdi
    24d2:	e8 39 c6 00 00       	call   eb10 <memcpy_verw_s>
    24d7:	45 31 e4             	xor    %r12d,%r12d
    24da:	85 c0                	test   %eax,%eax
    24dc:	41 0f 95 c4          	setne  %r12b
    24e0:	eb 0f                	jmp    24f1 <sgx_SHA512_ecall+0x10d>
    24e2:	48 85 ed             	test   %rbp,%rbp
    24e5:	0f 84 47 ff ff ff    	je     2432 <sgx_SHA512_ecall+0x4e>
    24eb:	41 bc 01 00 00 00    	mov    $0x1,%r12d
    24f1:	48 89 ef             	mov    %rbp,%rdi
    24f4:	e8 b7 a9 00 00       	call   ceb0 <dlfree>
    24f9:	48 83 c4 28          	add    $0x28,%rsp
    24fd:	5d                   	pop    %rbp
    24fe:	44 89 e0             	mov    %r12d,%eax
    2501:	41 5c                	pop    %r12
    2503:	41 5d                	pop    %r13
    2505:	41 5e                	pop    %r14
    2507:	c3                   	ret    

0000000000002508 <ocall_print_string>:
    2508:	f3 0f 1e fa          	endbr64 
    250c:	41 55                	push   %r13
    250e:	41 54                	push   %r12
    2510:	49 89 fc             	mov    %rdi,%r12
    2513:	55                   	push   %rbp
    2514:	53                   	push   %rbx
    2515:	31 db                	xor    %ebx,%ebx
    2517:	48 83 ec 18          	sub    $0x18,%rsp
    251b:	48 85 ff             	test   %rdi,%rdi
    251e:	74 09                	je     2529 <ocall_print_string+0x21>
    2520:	e8 1b c3 00 00       	call   e840 <strlen>
    2525:	48 8d 58 01          	lea    0x1(%rax),%rbx
    2529:	48 c7 44 24 08 00 00 	movq   $0x0,0x8(%rsp)
    2530:	00 00 
    2532:	4d 85 e4             	test   %r12,%r12
    2535:	74 1e                	je     2555 <ocall_print_string+0x4d>
    2537:	48 89 de             	mov    %rbx,%rsi
    253a:	4c 89 e7             	mov    %r12,%rdi
    253d:	e8 6e 17 00 00       	call   3cb0 <sgx_is_within_enclave>
    2542:	41 bd 02 00 00 00    	mov    $0x2,%r13d
    2548:	85 c0                	test   %eax,%eax
    254a:	0f 84 90 00 00 00    	je     25e0 <ocall_print_string+0xd8>
    2550:	49 89 dd             	mov    %rbx,%r13
    2553:	eb 03                	jmp    2558 <ocall_print_string+0x50>
    2555:	45 31 ed             	xor    %r13d,%r13d
    2558:	49 8d 7d 08          	lea    0x8(%r13),%rdi
    255c:	e8 ff 17 00 00       	call   3d60 <sgx_ocalloc>
    2561:	48 89 c5             	mov    %rax,%rbp
    2564:	48 85 c0             	test   %rax,%rax
    2567:	75 16                	jne    257f <ocall_print_string+0x77>
    2569:	48 c7 44 24 08 00 00 	movq   $0x0,0x8(%rsp)
    2570:	00 00 
    2572:	e8 c9 18 00 00       	call   3e40 <sgx_ocfree>
    2577:	41 bd 01 00 00 00    	mov    $0x1,%r13d
    257d:	eb 61                	jmp    25e0 <ocall_print_string+0xd8>
    257f:	48 8d 40 08          	lea    0x8(%rax),%rax
    2583:	48 89 44 24 08       	mov    %rax,0x8(%rsp)
    2588:	4d 85 e4             	test   %r12,%r12
    258b:	74 39                	je     25c6 <ocall_print_string+0xbe>
    258d:	48 8d 54 24 08       	lea    0x8(%rsp),%rdx
    2592:	b9 08 00 00 00       	mov    $0x8,%ecx
    2597:	be 08 00 00 00       	mov    $0x8,%esi
    259c:	48 89 ef             	mov    %rbp,%rdi
    259f:	e8 6c c5 00 00       	call   eb10 <memcpy_verw_s>
    25a4:	85 c0                	test   %eax,%eax
    25a6:	75 ca                	jne    2572 <ocall_print_string+0x6a>
    25a8:	48 8b 7c 24 08       	mov    0x8(%rsp),%rdi
    25ad:	48 89 d9             	mov    %rbx,%rcx
    25b0:	4c 89 e2             	mov    %r12,%rdx
    25b3:	4c 89 ee             	mov    %r13,%rsi
    25b6:	e8 55 c5 00 00       	call   eb10 <memcpy_verw_s>
    25bb:	85 c0                	test   %eax,%eax
    25bd:	75 b3                	jne    2572 <ocall_print_string+0x6a>
    25bf:	48 01 5c 24 08       	add    %rbx,0x8(%rsp)
    25c4:	eb 08                	jmp    25ce <ocall_print_string+0xc6>
    25c6:	48 c7 45 00 00 00 00 	movq   $0x0,0x0(%rbp)
    25cd:	00 
    25ce:	48 89 ee             	mov    %rbp,%rsi
    25d1:	31 ff                	xor    %edi,%edi
    25d3:	e8 88 2d 00 00       	call   5360 <sgx_ocall>
    25d8:	41 89 c5             	mov    %eax,%r13d
    25db:	e8 60 18 00 00       	call   3e40 <sgx_ocfree>
    25e0:	48 83 c4 18          	add    $0x18,%rsp
    25e4:	5b                   	pop    %rbx
    25e5:	5d                   	pop    %rbp
    25e6:	41 5c                	pop    %r12
    25e8:	44 89 e8             	mov    %r13d,%eax
    25eb:	41 5d                	pop    %r13
    25ed:	c3                   	ret    
    25ee:	66 90                	xchg   %ax,%ax

00000000000025f0 <register_value_select>:
    25f0:	89 f1                	mov    %esi,%ecx
    25f2:	31 c0                	xor    %eax,%eax
    25f4:	48 83 f9 00          	cmp    $0x0,%rcx
    25f8:	48 0f 44 07          	cmove  (%rdi),%rax
    25fc:	48 83 f9 01          	cmp    $0x1,%rcx
    2600:	48 0f 44 47 08       	cmove  0x8(%rdi),%rax
    2605:	48 83 f9 02          	cmp    $0x2,%rcx
    2609:	48 0f 44 47 10       	cmove  0x10(%rdi),%rax
    260e:	48 83 f9 03          	cmp    $0x3,%rcx
    2612:	48 0f 44 47 18       	cmove  0x18(%rdi),%rax
    2617:	48 83 f9 04          	cmp    $0x4,%rcx
    261b:	48 0f 44 47 20       	cmove  0x20(%rdi),%rax
    2620:	48 83 f9 05          	cmp    $0x5,%rcx
    2624:	48 0f 44 47 28       	cmove  0x28(%rdi),%rax
    2629:	48 83 f9 06          	cmp    $0x6,%rcx
    262d:	48 0f 44 47 30       	cmove  0x30(%rdi),%rax
    2632:	48 83 f9 07          	cmp    $0x7,%rcx
    2636:	48 0f 44 47 38       	cmove  0x38(%rdi),%rax
    263b:	48 83 f9 08          	cmp    $0x8,%rcx
    263f:	48 0f 44 47 40       	cmove  0x40(%rdi),%rax
    2644:	48 83 f9 09          	cmp    $0x9,%rcx
    2648:	48 0f 44 47 48       	cmove  0x48(%rdi),%rax
    264d:	48 83 f9 0a          	cmp    $0xa,%rcx
    2651:	48 0f 44 47 50       	cmove  0x50(%rdi),%rax
    2656:	48 83 f9 0b          	cmp    $0xb,%rcx
    265a:	48 0f 44 47 58       	cmove  0x58(%rdi),%rax
    265f:	48 83 f9 0c          	cmp    $0xc,%rcx
    2663:	48 0f 44 47 60       	cmove  0x60(%rdi),%rax
    2668:	48 83 f9 0d          	cmp    $0xd,%rcx
    266c:	48 0f 44 47 68       	cmove  0x68(%rdi),%rax
    2671:	48 83 f9 0e          	cmp    $0xe,%rcx
    2675:	48 0f 44 47 70       	cmove  0x70(%rdi),%rax
    267a:	48 83 f9 0f          	cmp    $0xf,%rcx
    267e:	48 0f 44 47 78       	cmove  0x78(%rdi),%rax
    2683:	c3                   	ret    
    2684:	66 2e 0f 1f 84 00 00 	cs nopw 0x0(%rax,%rax,1)
    268b:	00 00 00 
    268e:	66 90                	xchg   %ax,%ax

0000000000002690 <ct_decode>:
    2690:	f3 0f 1e fa          	endbr64 
    2694:	55                   	push   %rbp
    2695:	48 89 e5             	mov    %rsp,%rbp
    2698:	41 57                	push   %r15
    269a:	41 56                	push   %r14
    269c:	41 55                	push   %r13
    269e:	41 54                	push   %r12
    26a0:	53                   	push   %rbx
    26a1:	48 83 e4 c0          	and    $0xffffffffffffffc0,%rsp
    26a5:	48 81 ec 40 05 00 00 	sub    $0x540,%rsp
    26ac:	48 89 7c 24 70       	mov    %rdi,0x70(%rsp)
    26b1:	48 89 74 24 48       	mov    %rsi,0x48(%rsp)
    26b6:	64 48 8b 04 25 28 00 	mov    %fs:0x28,%rax
    26bd:	00 00 
    26bf:	48 89 84 24 38 05 00 	mov    %rax,0x538(%rsp)
    26c6:	00 
    26c7:	31 c0                	xor    %eax,%eax
    26c9:	48 8d 84 24 00 01 00 	lea    0x100(%rsp),%rax
    26d0:	00 
    26d1:	f6 05 43 96 03 00 08 	testb  $0x8,0x39643(%rip)        # 3bd1b <g_cpu_feature_indicator+0x3>
    26d8:	48 89 44 24 20       	mov    %rax,0x20(%rsp)
    26dd:	0f 84 f5 0e 00 00    	je     35d8 <ct_decode+0xf48>
    26e3:	62 f1 7c 48 29 00    	vmovaps %zmm0,(%rax)
    26e9:	62 f1 7c 48 29 48 01 	vmovaps %zmm1,0x40(%rax)
    26f0:	62 f1 7c 48 29 50 02 	vmovaps %zmm2,0x80(%rax)
    26f7:	62 f1 7c 48 29 58 03 	vmovaps %zmm3,0xc0(%rax)
    26fe:	62 f1 7c 48 29 60 04 	vmovaps %zmm4,0x100(%rax)
    2705:	62 f1 7c 48 29 68 05 	vmovaps %zmm5,0x140(%rax)
    270c:	62 f1 7c 48 29 70 06 	vmovaps %zmm6,0x180(%rax)
    2713:	62 f1 7c 48 29 78 07 	vmovaps %zmm7,0x1c0(%rax)
    271a:	62 71 7c 48 29 40 08 	vmovaps %zmm8,0x200(%rax)
    2721:	62 71 7c 48 29 48 09 	vmovaps %zmm9,0x240(%rax)
    2728:	62 71 7c 48 29 50 0a 	vmovaps %zmm10,0x280(%rax)
    272f:	62 71 7c 48 29 58 0b 	vmovaps %zmm11,0x2c0(%rax)
    2736:	62 71 7c 48 29 60 0c 	vmovaps %zmm12,0x300(%rax)
    273d:	62 71 7c 48 29 68 0d 	vmovaps %zmm13,0x340(%rax)
    2744:	62 71 7c 48 29 70 0e 	vmovaps %zmm14,0x380(%rax)
    274b:	62 71 7c 48 29 78 0f 	vmovaps %zmm15,0x3c0(%rax)
    2752:	48 8b 7c 24 70       	mov    0x70(%rsp),%rdi
    2757:	31 d2                	xor    %edx,%edx
    2759:	b9 f0 0f 00 00       	mov    $0xff0,%ecx
    275e:	c5 d9 ef e4          	vpxor  %xmm4,%xmm4,%xmm4
    2762:	49 c7 c1 ff ff ff ff 	mov    $0xffffffffffffffff,%r9
    2769:	c5 fd 6f 15 6f 19 03 	vmovdqa 0x3196f(%rip),%ymm2        # 340e0 <g_dyn_entry_table+0x10>
    2770:	00 
    2771:	c5 79 6f 2d a7 99 03 	vmovdqa 0x399a7(%rip),%xmm13        # 3c120 <standard>
    2778:	00 
    2779:	41 bc 02 00 00 00    	mov    $0x2,%r12d
    277f:	4c 8b af 88 00 00 00 	mov    0x88(%rdi),%r13
    2786:	c5 79 6f 25 a2 99 03 	vmovdqa 0x399a2(%rip),%xmm12        # 3c130 <standard+0x10>
    278d:	00 
    278e:	41 ba 03 00 00 00    	mov    $0x3,%r10d
    2794:	41 b8 05 00 00 00    	mov    $0x5,%r8d
    279a:	c5 79 6f 1d 9e 99 03 	vmovdqa 0x3999e(%rip),%xmm11        # 3c140 <standard+0x20>
    27a1:	00 
    27a2:	c5 79 6f 15 a6 99 03 	vmovdqa 0x399a6(%rip),%xmm10        # 3c150 <standard+0x30>
    27a9:	00 
    27aa:	4c 89 e8             	mov    %r13,%rax
    27ad:	4c 89 6c 24 60       	mov    %r13,0x60(%rsp)
    27b2:	c4 63 15 38 2d 64 98 	vinserti128 $0x1,0x39864(%rip),%ymm13,%ymm13        # 3c020 <extended>
    27b9:	03 00 01 
    27bc:	25 ff 0f 00 00       	and    $0xfff,%eax
    27c1:	c4 63 1d 38 25 65 98 	vinserti128 $0x1,0x39865(%rip),%ymm12,%ymm12        # 3c030 <extended+0x10>
    27c8:	03 00 01 
    27cb:	c4 63 25 38 1d 6b 98 	vinserti128 $0x1,0x3986b(%rip),%ymm11,%ymm11        # 3c040 <extended+0x20>
    27d2:	03 00 01 
    27d5:	48 3d f0 0f 00 00    	cmp    $0xff0,%rax
    27db:	c5 79 6f 0d 7d 99 03 	vmovdqa 0x3997d(%rip),%xmm9        # 3c160 <standard+0x40>
    27e2:	00 
    27e3:	c4 63 2d 38 15 63 98 	vinserti128 $0x1,0x39863(%rip),%ymm10,%ymm10        # 3c050 <extended+0x30>
    27ea:	03 00 01 
    27ed:	0f 96 c2             	setbe  %dl
    27f0:	c5 79 6f 05 78 99 03 	vmovdqa 0x39978(%rip),%xmm8        # 3c170 <standard+0x50>
    27f7:	00 
    27f8:	c4 63 35 38 0d 5e 98 	vinserti128 $0x1,0x3985e(%rip),%ymm9,%ymm9        # 3c060 <extended+0x40>
    27ff:	03 00 01 
    2802:	48 83 fa 00          	cmp    $0x0,%rdx
    2806:	48 0f 45 c8          	cmovne %rax,%rcx
    280a:	31 d2                	xor    %edx,%edx
    280c:	48 3d f0 0f 00 00    	cmp    $0xff0,%rax
    2812:	c4 63 3d 38 05 54 98 	vinserti128 $0x1,0x39854(%rip),%ymm8,%ymm8        # 3c070 <extended+0x50>
    2819:	03 00 01 
    281c:	c5 f9 6f 3d 5c 99 03 	vmovdqa 0x3995c(%rip),%xmm7        # 3c180 <standard+0x60>
    2823:	00 
    2824:	0f 97 c2             	seta   %dl
    2827:	31 c0                	xor    %eax,%eax
    2829:	c4 e3 45 38 3d 4d 98 	vinserti128 $0x1,0x3984d(%rip),%ymm7,%ymm7        # 3c080 <extended+0x60>
    2830:	03 00 01 
    2833:	c5 f9 6f 35 55 99 03 	vmovdqa 0x39955(%rip),%xmm6        # 3c190 <standard+0x70>
    283a:	00 
    283b:	48 83 fa 00          	cmp    $0x0,%rdx
    283f:	49 0f 45 c1          	cmovne %r9,%rax
    2843:	4c 89 ea             	mov    %r13,%rdx
    2846:	c4 e1 f9 6e e8       	vmovq  %rax,%xmm5
    284b:	c4 e3 4d 38 35 3b 98 	vinserti128 $0x1,0x3983b(%rip),%ymm6,%ymm6        # 3c090 <extended+0x70>
    2852:	03 00 01 
    2855:	48 81 e2 00 f0 ff ff 	and    $0xfffffffffffff000,%rdx
    285c:	c5 d1 6c dd          	vpunpcklqdq %xmm5,%xmm5,%xmm3
    2860:	c5 f9 6f 2d 38 99 03 	vmovdqa 0x39938(%rip),%xmm5        # 3c1a0 <standard+0x80>
    2867:	00 
    2868:	c4 e3 55 38 2d 2e 98 	vinserti128 $0x1,0x3982e(%rip),%ymm5,%ymm5        # 3c0a0 <extended+0x80>
    286f:	03 00 01 
    2872:	48 09 ca             	or     %rcx,%rdx
    2875:	31 c9                	xor    %ecx,%ecx
    2877:	c5 e1 eb 1a          	vpor   (%rdx),%xmm3,%xmm3
    287b:	c4 e2 7d 59 c3       	vpbroadcastq %xmm3,%ymm0
    2880:	c4 e1 f9 7e de       	vmovq  %xmm3,%rsi
    2885:	c5 ed df c8          	vpandn %ymm0,%ymm2,%ymm1
    2889:	c5 fd db c2          	vpand  %ymm2,%ymm0,%ymm0
    288d:	c5 fd 6f 15 6b 18 03 	vmovdqa 0x3186b(%rip),%ymm2        # 34100 <g_dyn_entry_table+0x30>
    2894:	00 
    2895:	c5 fd 74 e4          	vpcmpeqb %ymm4,%ymm0,%ymm4
    2899:	c5 dd df e2          	vpandn %ymm2,%ymm4,%ymm4
    289d:	c5 dd eb e1          	vpor   %ymm1,%ymm4,%ymm4
    28a1:	c4 62 15 00 ec       	vpshufb %ymm4,%ymm13,%ymm13
    28a6:	c5 fd 74 25 72 18 03 	vpcmpeqb 0x31872(%rip),%ymm0,%ymm4        # 34120 <g_dyn_entry_table+0x50>
    28ad:	00 
    28ae:	c4 61 f9 7e e8       	vmovq  %xmm13,%rax
    28b3:	c4 43 7d 39 ed 01    	vextracti128 $0x1,%ymm13,%xmm13
    28b9:	c5 dd df e2          	vpandn %ymm2,%ymm4,%ymm4
    28bd:	c5 dd eb e1          	vpor   %ymm1,%ymm4,%ymm4
    28c1:	c4 62 1d 00 e4       	vpshufb %ymm4,%ymm12,%ymm12
    28c6:	c5 fd 74 25 72 18 03 	vpcmpeqb 0x31872(%rip),%ymm0,%ymm4        # 34140 <g_dyn_entry_table+0x70>
    28cd:	00 
    28ce:	c4 61 f9 7e e2       	vmovq  %xmm12,%rdx
    28d3:	c4 43 7d 39 e4 01    	vextracti128 $0x1,%ymm12,%xmm12
    28d9:	48 09 d0             	or     %rdx,%rax
    28dc:	c5 dd df e2          	vpandn %ymm2,%ymm4,%ymm4
    28e0:	c5 dd eb e1          	vpor   %ymm1,%ymm4,%ymm4
    28e4:	c4 62 25 00 dc       	vpshufb %ymm4,%ymm11,%ymm11
    28e9:	c5 fd 74 25 6f 18 03 	vpcmpeqb 0x3186f(%rip),%ymm0,%ymm4        # 34160 <g_dyn_entry_table+0x90>
    28f0:	00 
    28f1:	c4 61 f9 7e da       	vmovq  %xmm11,%rdx
    28f6:	c4 43 7d 39 db 01    	vextracti128 $0x1,%ymm11,%xmm11
    28fc:	48 09 d0             	or     %rdx,%rax
    28ff:	c5 dd df e2          	vpandn %ymm2,%ymm4,%ymm4
    2903:	c5 dd eb e1          	vpor   %ymm1,%ymm4,%ymm4
    2907:	c4 62 2d 00 d4       	vpshufb %ymm4,%ymm10,%ymm10
    290c:	c5 fd 74 25 6c 18 03 	vpcmpeqb 0x3186c(%rip),%ymm0,%ymm4        # 34180 <g_dyn_entry_table+0xb0>
    2913:	00 
    2914:	c4 61 f9 7e d2       	vmovq  %xmm10,%rdx
    2919:	c4 43 7d 39 d2 01    	vextracti128 $0x1,%ymm10,%xmm10
    291f:	48 09 d0             	or     %rdx,%rax
    2922:	c5 dd df e2          	vpandn %ymm2,%ymm4,%ymm4
    2926:	c5 dd eb e1          	vpor   %ymm1,%ymm4,%ymm4
    292a:	c4 62 35 00 cc       	vpshufb %ymm4,%ymm9,%ymm9
    292f:	c5 fd 74 25 69 18 03 	vpcmpeqb 0x31869(%rip),%ymm0,%ymm4        # 341a0 <g_dyn_entry_table+0xd0>
    2936:	00 
    2937:	c4 61 f9 7e ca       	vmovq  %xmm9,%rdx
    293c:	c4 43 7d 39 c9 01    	vextracti128 $0x1,%ymm9,%xmm9
    2942:	48 09 d0             	or     %rdx,%rax
    2945:	c5 dd df e2          	vpandn %ymm2,%ymm4,%ymm4
    2949:	c5 dd eb e1          	vpor   %ymm1,%ymm4,%ymm4
    294d:	c4 62 3d 00 c4       	vpshufb %ymm4,%ymm8,%ymm8
    2952:	c5 fd 74 25 66 18 03 	vpcmpeqb 0x31866(%rip),%ymm0,%ymm4        # 341c0 <g_dyn_entry_table+0xf0>
    2959:	00 
    295a:	c4 61 f9 7e c2       	vmovq  %xmm8,%rdx
    295f:	c4 43 7d 39 c0 01    	vextracti128 $0x1,%ymm8,%xmm8
    2965:	48 09 d0             	or     %rdx,%rax
    2968:	c5 dd df e2          	vpandn %ymm2,%ymm4,%ymm4
    296c:	c5 dd eb e1          	vpor   %ymm1,%ymm4,%ymm4
    2970:	c4 e2 45 00 fc       	vpshufb %ymm4,%ymm7,%ymm7
    2975:	c5 fd 74 25 63 18 03 	vpcmpeqb 0x31863(%rip),%ymm0,%ymm4        # 341e0 <g_dyn_entry_table+0x110>
    297c:	00 
    297d:	c4 e1 f9 7e fa       	vmovq  %xmm7,%rdx
    2982:	c4 e3 7d 39 ff 01    	vextracti128 $0x1,%ymm7,%xmm7
    2988:	48 09 d0             	or     %rdx,%rax
    298b:	c5 dd df e2          	vpandn %ymm2,%ymm4,%ymm4
    298f:	c5 dd eb e1          	vpor   %ymm1,%ymm4,%ymm4
    2993:	c4 e2 4d 00 f4       	vpshufb %ymm4,%ymm6,%ymm6
    2998:	c5 fd 74 25 60 17 03 	vpcmpeqb 0x31760(%rip),%ymm0,%ymm4        # 34100 <g_dyn_entry_table+0x30>
    299f:	00 
    29a0:	c5 7d 74 35 58 18 03 	vpcmpeqb 0x31858(%rip),%ymm0,%ymm14        # 34200 <g_dyn_entry_table+0x130>
    29a7:	00 
    29a8:	c4 e1 f9 7e f2       	vmovq  %xmm6,%rdx
    29ad:	c5 79 6f 3d 0b 98 03 	vmovdqa 0x3980b(%rip),%xmm15        # 3c1c0 <standard+0xa0>
    29b4:	00 
    29b5:	c4 63 05 38 3d 01 97 	vinserti128 $0x1,0x39701(%rip),%ymm15,%ymm15        # 3c0c0 <extended+0xa0>
    29bc:	03 00 01 
    29bf:	48 09 d0             	or     %rdx,%rax
    29c2:	c4 e3 7d 39 f6 01    	vextracti128 $0x1,%ymm6,%xmm6
    29c8:	c5 dd df e2          	vpandn %ymm2,%ymm4,%ymm4
    29cc:	c5 dd eb e1          	vpor   %ymm1,%ymm4,%ymm4
    29d0:	c5 0d df f2          	vpandn %ymm2,%ymm14,%ymm14
    29d4:	c4 e2 55 00 ec       	vpshufb %ymm4,%ymm5,%ymm5
    29d9:	c5 f9 6f 25 cf 97 03 	vmovdqa 0x397cf(%rip),%xmm4        # 3c1b0 <standard+0x90>
    29e0:	00 
    29e1:	c5 0d eb f1          	vpor   %ymm1,%ymm14,%ymm14
    29e5:	c4 e3 5d 38 25 c1 96 	vinserti128 $0x1,0x396c1(%rip),%ymm4,%ymm4        # 3c0b0 <extended+0x90>
    29ec:	03 00 01 
    29ef:	c4 e1 f9 7e ea       	vmovq  %xmm5,%rdx
    29f4:	c4 e3 7d 39 ed 01    	vextracti128 $0x1,%ymm5,%xmm5
    29fa:	c4 c2 5d 00 e6       	vpshufb %ymm14,%ymm4,%ymm4
    29ff:	48 09 d0             	or     %rdx,%rax
    2a02:	c5 7d 74 35 16 18 03 	vpcmpeqb 0x31816(%rip),%ymm0,%ymm14        # 34220 <g_dyn_entry_table+0x150>
    2a09:	00 
    2a0a:	c4 e1 f9 7e e2       	vmovq  %xmm4,%rdx
    2a0f:	c4 e3 7d 39 e4 01    	vextracti128 $0x1,%ymm4,%xmm4
    2a15:	48 09 d0             	or     %rdx,%rax
    2a18:	c5 0d df f2          	vpandn %ymm2,%ymm14,%ymm14
    2a1c:	c5 0d eb f1          	vpor   %ymm1,%ymm14,%ymm14
    2a20:	c4 42 05 00 fe       	vpshufb %ymm14,%ymm15,%ymm15
    2a25:	c5 7d 74 35 13 18 03 	vpcmpeqb 0x31813(%rip),%ymm0,%ymm14        # 34240 <g_dyn_entry_table+0x170>
    2a2c:	00 
    2a2d:	c5 7d 7f bc 24 a0 00 	vmovdqa %ymm15,0xa0(%rsp)
    2a34:	00 00 
    2a36:	c5 79 6f 3d 92 97 03 	vmovdqa 0x39792(%rip),%xmm15        # 3c1d0 <standard+0xb0>
    2a3d:	00 
    2a3e:	c4 63 05 38 3d 88 96 	vinserti128 $0x1,0x39688(%rip),%ymm15,%ymm15        # 3c0d0 <extended+0xb0>
    2a45:	03 00 01 
    2a48:	c5 0d df f2          	vpandn %ymm2,%ymm14,%ymm14
    2a4c:	c5 0d eb f1          	vpor   %ymm1,%ymm14,%ymm14
    2a50:	c4 42 05 00 f6       	vpshufb %ymm14,%ymm15,%ymm14
    2a55:	c5 79 6f 3d 83 97 03 	vmovdqa 0x39783(%rip),%xmm15        # 3c1e0 <standard+0xc0>
    2a5c:	00 
    2a5d:	c4 63 05 38 3d 79 96 	vinserti128 $0x1,0x39679(%rip),%ymm15,%ymm15        # 3c0e0 <extended+0xc0>
    2a64:	03 00 01 
    2a67:	c5 7d 7f b4 24 e0 00 	vmovdqa %ymm14,0xe0(%rsp)
    2a6e:	00 00 
    2a70:	c5 7d 74 35 e8 17 03 	vpcmpeqb 0x317e8(%rip),%ymm0,%ymm14        # 34260 <g_dyn_entry_table+0x190>
    2a77:	00 
    2a78:	c5 0d df f2          	vpandn %ymm2,%ymm14,%ymm14
    2a7c:	c5 0d eb f1          	vpor   %ymm1,%ymm14,%ymm14
    2a80:	c4 42 05 00 f6       	vpshufb %ymm14,%ymm15,%ymm14
    2a85:	c5 79 6f 3d 63 97 03 	vmovdqa 0x39763(%rip),%xmm15        # 3c1f0 <standard+0xd0>
    2a8c:	00 
    2a8d:	c4 63 05 38 3d 59 96 	vinserti128 $0x1,0x39659(%rip),%ymm15,%ymm15        # 3c0f0 <extended+0xd0>
    2a94:	03 00 01 
    2a97:	c5 7d 7f b4 24 c0 00 	vmovdqa %ymm14,0xc0(%rsp)
    2a9e:	00 00 
    2aa0:	c5 7d 74 35 d8 17 03 	vpcmpeqb 0x317d8(%rip),%ymm0,%ymm14        # 34280 <g_dyn_entry_table+0x1b0>
    2aa7:	00 
    2aa8:	c5 0d df f2          	vpandn %ymm2,%ymm14,%ymm14
    2aac:	c5 0d eb f1          	vpor   %ymm1,%ymm14,%ymm14
    2ab0:	c4 42 05 00 fe       	vpshufb %ymm14,%ymm15,%ymm15
    2ab5:	c5 7d 74 35 e3 17 03 	vpcmpeqb 0x317e3(%rip),%ymm0,%ymm14        # 342a0 <g_dyn_entry_table+0x1d0>
    2abc:	00 
    2abd:	c5 fd 74 05 1b 16 03 	vpcmpeqb 0x3161b(%rip),%ymm0,%ymm0        # 340e0 <g_dyn_entry_table+0x10>
    2ac4:	00 
    2ac5:	c5 7d 7f bc 24 80 00 	vmovdqa %ymm15,0x80(%rsp)
    2acc:	00 00 
    2ace:	c5 79 6f 3d 2a 97 03 	vmovdqa 0x3972a(%rip),%xmm15        # 3c200 <standard+0xe0>
    2ad5:	00 
    2ad6:	c4 63 05 38 3d 20 96 	vinserti128 $0x1,0x39620(%rip),%ymm15,%ymm15        # 3c100 <extended+0xe0>
    2add:	03 00 01 
    2ae0:	c5 0d df f2          	vpandn %ymm2,%ymm14,%ymm14
    2ae4:	c5 0d eb f1          	vpor   %ymm1,%ymm14,%ymm14
    2ae8:	c5 fd df c2          	vpandn %ymm2,%ymm0,%ymm0
    2aec:	c5 f9 6f 15 1c 97 03 	vmovdqa 0x3971c(%rip),%xmm2        # 3c210 <standard+0xf0>
    2af3:	00 
    2af4:	c4 e3 6d 38 15 12 96 	vinserti128 $0x1,0x39612(%rip),%ymm2,%ymm2        # 3c110 <extended+0xf0>
    2afb:	03 00 01 
    2afe:	c4 42 05 00 f6       	vpshufb %ymm14,%ymm15,%ymm14
    2b03:	c5 fd eb c1          	vpor   %ymm1,%ymm0,%ymm0
    2b07:	c5 7d 6f bc 24 a0 00 	vmovdqa 0xa0(%rsp),%ymm15
    2b0e:	00 00 
    2b10:	c4 e2 6d 00 d0       	vpshufb %ymm0,%ymm2,%ymm2
    2b15:	c5 f9 6f 84 24 e0 00 	vmovdqa 0xe0(%rsp),%xmm0
    2b1c:	00 00 
    2b1e:	c4 61 f9 7e fa       	vmovq  %xmm15,%rdx
    2b23:	48 09 d0             	or     %rdx,%rax
    2b26:	c4 e1 f9 7e c2       	vmovq  %xmm0,%rdx
    2b2b:	c5 f9 6f 84 24 c0 00 	vmovdqa 0xc0(%rsp),%xmm0
    2b32:	00 00 
    2b34:	48 09 d0             	or     %rdx,%rax
    2b37:	c4 e1 f9 7e c2       	vmovq  %xmm0,%rdx
    2b3c:	c5 f9 6f 84 24 80 00 	vmovdqa 0x80(%rsp),%xmm0
    2b43:	00 00 
    2b45:	48 09 d0             	or     %rdx,%rax
    2b48:	c4 e1 f9 7e c2       	vmovq  %xmm0,%rdx
    2b4d:	48 09 d0             	or     %rdx,%rax
    2b50:	c4 61 f9 7e f2       	vmovq  %xmm14,%rdx
    2b55:	c4 43 7d 39 f6 01    	vextracti128 $0x1,%ymm14,%xmm14
    2b5b:	48 09 d0             	or     %rdx,%rax
    2b5e:	c4 e1 f9 7e d2       	vmovq  %xmm2,%rdx
    2b63:	c4 e3 7d 39 d2 01    	vextracti128 $0x1,%ymm2,%xmm2
    2b69:	48 09 d0             	or     %rdx,%rax
    2b6c:	48 ba ff ff ff ff ff 	movabs $0xffffffffffff,%rdx
    2b73:	ff 00 00 
    2b76:	48 21 c2             	and    %rax,%rdx
    2b79:	25 c0 00 00 00       	and    $0xc0,%eax
    2b7e:	48 83 f8 7f          	cmp    $0x7f,%rax
    2b82:	b8 0f 00 00 00       	mov    $0xf,%eax
    2b87:	0f 97 c1             	seta   %cl
    2b8a:	45 31 f6             	xor    %r14d,%r14d
    2b8d:	48 83 f9 00          	cmp    $0x0,%rcx
    2b91:	41 0f 45 c6          	cmovne %r14d,%eax
    2b95:	48 89 d1             	mov    %rdx,%rcx
    2b98:	89 c3                	mov    %eax,%ebx
    2b9a:	45 89 f5             	mov    %r14d,%r13d
    2b9d:	48 c1 e9 08          	shr    $0x8,%rcx
    2ba1:	81 e1 c0 00 00 00    	and    $0xc0,%ecx
    2ba7:	48 83 f9 7f          	cmp    $0x7f,%rcx
    2bab:	0f 97 c1             	seta   %cl
    2bae:	c1 e3 08             	shl    $0x8,%ebx
    2bb1:	0f b6 c9             	movzbl %cl,%ecx
    2bb4:	09 d9                	or     %ebx,%ecx
    2bb6:	bb 01 00 00 00       	mov    $0x1,%ebx
    2bbb:	81 f9 01 0f 00 00    	cmp    $0xf01,%ecx
    2bc1:	0f 94 c1             	sete   %cl
    2bc4:	0f b6 c9             	movzbl %cl,%ecx
    2bc7:	48 83 f9 00          	cmp    $0x0,%rcx
    2bcb:	0f 45 c3             	cmovne %ebx,%eax
    2bce:	48 89 d1             	mov    %rdx,%rcx
    2bd1:	41 89 c7             	mov    %eax,%r15d
    2bd4:	48 c1 e9 10          	shr    $0x10,%rcx
    2bd8:	81 e1 c0 00 00 00    	and    $0xc0,%ecx
    2bde:	48 83 f9 7f          	cmp    $0x7f,%rcx
    2be2:	0f 97 c1             	seta   %cl
    2be5:	41 c1 e7 08          	shl    $0x8,%r15d
    2be9:	0f b6 c9             	movzbl %cl,%ecx
    2bec:	44 09 f9             	or     %r15d,%ecx
    2bef:	81 f9 01 0f 00 00    	cmp    $0xf01,%ecx
    2bf5:	0f 94 c1             	sete   %cl
    2bf8:	0f b6 c9             	movzbl %cl,%ecx
    2bfb:	48 83 f9 00          	cmp    $0x0,%rcx
    2bff:	41 0f 45 c4          	cmovne %r12d,%eax
    2c03:	48 89 d1             	mov    %rdx,%rcx
    2c06:	41 89 c3             	mov    %eax,%r11d
    2c09:	48 c1 e9 18          	shr    $0x18,%rcx
    2c0d:	81 e1 c0 00 00 00    	and    $0xc0,%ecx
    2c13:	48 83 f9 7f          	cmp    $0x7f,%rcx
    2c17:	0f 97 c1             	seta   %cl
    2c1a:	41 c1 e3 08          	shl    $0x8,%r11d
    2c1e:	0f b6 c9             	movzbl %cl,%ecx
    2c21:	44 09 d9             	or     %r11d,%ecx
    2c24:	41 bb 04 00 00 00    	mov    $0x4,%r11d
    2c2a:	81 f9 01 0f 00 00    	cmp    $0xf01,%ecx
    2c30:	0f 94 c1             	sete   %cl
    2c33:	0f b6 c9             	movzbl %cl,%ecx
    2c36:	48 83 f9 00          	cmp    $0x0,%rcx
    2c3a:	41 0f 45 c2          	cmovne %r10d,%eax
    2c3e:	48 89 d1             	mov    %rdx,%rcx
    2c41:	41 89 c7             	mov    %eax,%r15d
    2c44:	48 c1 e9 20          	shr    $0x20,%rcx
    2c48:	81 e1 c0 00 00 00    	and    $0xc0,%ecx
    2c4e:	48 83 f9 7f          	cmp    $0x7f,%rcx
    2c52:	0f 97 c1             	seta   %cl
    2c55:	41 c1 e7 08          	shl    $0x8,%r15d
    2c59:	0f b6 c9             	movzbl %cl,%ecx
    2c5c:	44 09 f9             	or     %r15d,%ecx
    2c5f:	81 f9 01 0f 00 00    	cmp    $0xf01,%ecx
    2c65:	0f 94 c1             	sete   %cl
    2c68:	0f b6 c9             	movzbl %cl,%ecx
    2c6b:	48 83 f9 00          	cmp    $0x0,%rcx
    2c6f:	41 0f 45 c3          	cmovne %r11d,%eax
    2c73:	48 89 d1             	mov    %rdx,%rcx
    2c76:	41 89 c7             	mov    %eax,%r15d
    2c79:	48 c1 e9 28          	shr    $0x28,%rcx
    2c7d:	81 e1 c0 00 00 00    	and    $0xc0,%ecx
    2c83:	48 83 f9 7f          	cmp    $0x7f,%rcx
    2c87:	0f 97 c1             	seta   %cl
    2c8a:	41 c1 e7 08          	shl    $0x8,%r15d
    2c8e:	0f b6 c9             	movzbl %cl,%ecx
    2c91:	44 09 f9             	or     %r15d,%ecx
    2c94:	49 89 d7             	mov    %rdx,%r15
    2c97:	81 f9 01 0f 00 00    	cmp    $0xf01,%ecx
    2c9d:	0f 94 c1             	sete   %cl
    2ca0:	0f b6 c9             	movzbl %cl,%ecx
    2ca3:	48 83 f9 00          	cmp    $0x0,%rcx
    2ca7:	41 0f 45 c0          	cmovne %r8d,%eax
    2cab:	8d 0c c5 00 00 00 00 	lea    0x0(,%rax,8),%ecx
    2cb2:	49 d3 ef             	shr    %cl,%r15
    2cb5:	4c 89 ff             	mov    %r15,%rdi
    2cb8:	c4 c1 f9 7e df       	vmovq  %xmm3,%r15
    2cbd:	49 d3 ef             	shr    %cl,%r15
    2cc0:	41 89 fb             	mov    %edi,%r11d
    2cc3:	4c 89 f9             	mov    %r15,%rcx
    2cc6:	41 89 ff             	mov    %edi,%r15d
    2cc9:	41 c0 eb 02          	shr    $0x2,%r11b
    2ccd:	41 83 e7 03          	and    $0x3,%r15d
    2cd1:	44 88 9c 24 a0 00 00 	mov    %r11b,0xa0(%rsp)
    2cd8:	00 
    2cd9:	44 89 7c 24 58       	mov    %r15d,0x58(%rsp)
    2cde:	45 89 f7             	mov    %r14d,%r15d
    2ce1:	48 89 4c 24 78       	mov    %rcx,0x78(%rsp)
    2ce6:	31 c9                	xor    %ecx,%ecx
    2ce8:	80 7c 24 78 0f       	cmpb   $0xf,0x78(%rsp)
    2ced:	0f 94 c1             	sete   %cl
    2cf0:	45 31 db             	xor    %r11d,%r11d
    2cf3:	48 83 f9 00          	cmp    $0x0,%rcx
    2cf7:	44 0f 45 fb          	cmovne %ebx,%r15d
    2cfb:	89 f9                	mov    %edi,%ecx
    2cfd:	83 e1 f0             	and    $0xfffffff0,%ecx
    2d00:	80 f9 a0             	cmp    $0xa0,%cl
    2d03:	41 0f 94 c3          	sete   %r11b
    2d07:	49 83 fb 00          	cmp    $0x0,%r11
    2d0b:	44 0f 45 eb          	cmovne %ebx,%r13d
    2d0f:	80 f9 b0             	cmp    $0xb0,%cl
    2d12:	45 89 f3             	mov    %r14d,%r11d
    2d15:	44 89 6c 24 50       	mov    %r13d,0x50(%rsp)
    2d1a:	0f 94 c1             	sete   %cl
    2d1d:	41 29 c0             	sub    %eax,%r8d
    2d20:	0f b6 c9             	movzbl %cl,%ecx
    2d23:	48 83 f9 00          	cmp    $0x0,%rcx
    2d27:	44 0f 45 db          	cmovne %ebx,%r11d
    2d2b:	42 8d 0c c5 00 00 00 	lea    0x0(,%r8,8),%ecx
    2d32:	00 
    2d33:	44 89 5c 24 44       	mov    %r11d,0x44(%rsp)
    2d38:	49 bb ff ff ff ff ff 	movabs $0xffffffffff,%r11
    2d3f:	00 00 00 
    2d42:	49 d3 fb             	sar    %cl,%r11
    2d45:	8d 0c c5 f8 ff ff ff 	lea    -0x8(,%rax,8),%ecx
    2d4c:	4c 21 da             	and    %r11,%rdx
    2d4f:	45 31 db             	xor    %r11d,%r11d
    2d52:	49 89 d0             	mov    %rdx,%r8
    2d55:	c4 e1 f9 6e ca       	vmovq  %rdx,%xmm1
    2d5a:	49 d3 e8             	shr    %cl,%r8
    2d5d:	c4 c1 f9 6e c0       	vmovq  %r8,%xmm0
    2d62:	c4 c3 f9 22 c1 01    	vpinsrq $0x1,%r9,%xmm0,%xmm0
    2d68:	c5 f9 74 05 50 15 03 	vpcmpeqb 0x31550(%rip),%xmm0,%xmm0        # 342c0 <g_dyn_entry_table+0x1f0>
    2d6f:	00 
    2d70:	c4 c1 f9 7e c0       	vmovq  %xmm0,%r8
    2d75:	c4 c3 f1 22 c1 01    	vpinsrq $0x1,%r9,%xmm1,%xmm0
    2d7b:	49 b9 80 80 80 80 80 	movabs $0x8080808080808080,%r9
    2d82:	80 80 80 
    2d85:	c5 f9 74 0d 43 15 03 	vpcmpeqb 0x31543(%rip),%xmm0,%xmm1        # 342d0 <g_dyn_entry_table+0x200>
    2d8c:	00 
    2d8d:	4d 85 c0             	test   %r8,%r8
    2d90:	41 89 d8             	mov    %ebx,%r8d
    2d93:	41 0f 94 c3          	sete   %r11b
    2d97:	48 d3 ee             	shr    %cl,%rsi
    2d9a:	44 89 f1             	mov    %r14d,%ecx
    2d9d:	83 e6 4f             	and    $0x4f,%esi
    2da0:	c4 e1 f9 7e ca       	vmovq  %xmm1,%rdx
    2da5:	c5 f9 74 0d 33 15 03 	vpcmpeqb 0x31533(%rip),%xmm0,%xmm1        # 342e0 <g_dyn_entry_table+0x210>
    2dac:	00 
    2dad:	49 83 fb 00          	cmp    $0x0,%r11
    2db1:	45 0f 45 c6          	cmovne %r14d,%r8d
    2db5:	49 bb 00 80 80 80 80 	movabs $0x8080808080808000,%r11
    2dbc:	80 80 80 
    2dbf:	45 89 c0             	mov    %r8d,%r8d
    2dc2:	49 83 f8 00          	cmp    $0x0,%r8
    2dc6:	0f 45 ce             	cmovne %esi,%ecx
    2dc9:	89 4c 24 38          	mov    %ecx,0x38(%rsp)
    2dcd:	31 c9                	xor    %ecx,%ecx
    2dcf:	48 85 d2             	test   %rdx,%rdx
    2dd2:	89 da                	mov    %ebx,%edx
    2dd4:	0f 94 c1             	sete   %cl
    2dd7:	89 de                	mov    %ebx,%esi
    2dd9:	41 89 d8             	mov    %ebx,%r8d
    2ddc:	48 83 f9 00          	cmp    $0x0,%rcx
    2de0:	41 0f 45 d6          	cmovne %r14d,%edx
    2de4:	89 d1                	mov    %edx,%ecx
    2de6:	44 89 f2             	mov    %r14d,%edx
    2de9:	48 83 f9 00          	cmp    $0x0,%rcx
    2ded:	0f 45 d3             	cmovne %ebx,%edx
    2df0:	c4 e1 f9 7e c9       	vmovq  %xmm1,%rcx
    2df5:	c5 f9 74 0d f3 14 03 	vpcmpeqb 0x314f3(%rip),%xmm0,%xmm1        # 342f0 <g_dyn_entry_table+0x220>
    2dfc:	00 
    2dfd:	48 85 c9             	test   %rcx,%rcx
    2e00:	0f 94 c1             	sete   %cl
    2e03:	0f b6 c9             	movzbl %cl,%ecx
    2e06:	48 83 f9 00          	cmp    $0x0,%rcx
    2e0a:	41 0f 45 f6          	cmovne %r14d,%esi
    2e0e:	c4 e1 f9 7e c9       	vmovq  %xmm1,%rcx
    2e13:	c5 f9 74 0d e5 14 03 	vpcmpeqb 0x314e5(%rip),%xmm0,%xmm1        # 34300 <g_dyn_entry_table+0x230>
    2e1a:	00 
    2e1b:	89 74 24 40          	mov    %esi,0x40(%rsp)
    2e1f:	48 85 c9             	test   %rcx,%rcx
    2e22:	c5 f9 74 05 e6 14 03 	vpcmpeqb 0x314e6(%rip),%xmm0,%xmm0        # 34310 <g_dyn_entry_table+0x240>
    2e29:	00 
    2e2a:	0f 94 c1             	sete   %cl
    2e2d:	31 f6                	xor    %esi,%esi
    2e2f:	0f b6 c9             	movzbl %cl,%ecx
    2e32:	48 83 f9 00          	cmp    $0x0,%rcx
    2e36:	45 0f 45 c6          	cmovne %r14d,%r8d
    2e3a:	c4 e1 f9 7e c9       	vmovq  %xmm1,%rcx
    2e3f:	44 89 44 24 34       	mov    %r8d,0x34(%rsp)
    2e44:	c5 fb f0 0d b4 91 03 	vlddqu 0x391b4(%rip),%xmm1        # 3c000 <extension_2op_table>
    2e4b:	00 
    2e4c:	48 85 c9             	test   %rcx,%rcx
    2e4f:	89 d9                	mov    %ebx,%ecx
    2e51:	40 0f 94 c6          	sete   %sil
    2e55:	48 83 fe 00          	cmp    $0x0,%rsi
    2e59:	41 0f 45 ce          	cmovne %r14d,%ecx
    2e5d:	89 c9                	mov    %ecx,%ecx
    2e5f:	31 f6                	xor    %esi,%esi
    2e61:	48 83 f9 00          	cmp    $0x0,%rcx
    2e65:	41 0f 45 d2          	cmovne %r10d,%edx
    2e69:	c4 e1 f9 7e c1       	vmovq  %xmm0,%rcx
    2e6e:	41 89 d5             	mov    %edx,%r13d
    2e71:	c4 61 f9 7e ea       	vmovq  %xmm13,%rdx
    2e76:	48 85 c9             	test   %rcx,%rcx
    2e79:	89 d9                	mov    %ebx,%ecx
    2e7b:	c4 63 7d 39 f8 01    	vextracti128 $0x1,%ymm15,%xmm0
    2e81:	40 0f 94 c6          	sete   %sil
    2e85:	48 83 fe 00          	cmp    $0x0,%rsi
    2e89:	41 0f 45 ce          	cmovne %r14d,%ecx
    2e8d:	89 c9                	mov    %ecx,%ecx
    2e8f:	c4 e1 f9 7e d6       	vmovq  %xmm2,%rsi
    2e94:	48 83 f9 00          	cmp    $0x0,%rcx
    2e98:	45 0f 45 ec          	cmovne %r12d,%r13d
    2e9c:	c4 61 f9 7e e1       	vmovq  %xmm12,%rcx
    2ea1:	48 09 d1             	or     %rdx,%rcx
    2ea4:	c4 61 f9 7e da       	vmovq  %xmm11,%rdx
    2ea9:	48 09 ca             	or     %rcx,%rdx
    2eac:	c4 61 f9 7e d1       	vmovq  %xmm10,%rcx
    2eb1:	48 09 d1             	or     %rdx,%rcx
    2eb4:	c4 61 f9 7e ca       	vmovq  %xmm9,%rdx
    2eb9:	48 09 ca             	or     %rcx,%rdx
    2ebc:	c4 61 f9 7e c1       	vmovq  %xmm8,%rcx
    2ec1:	48 09 d1             	or     %rdx,%rcx
    2ec4:	c4 e1 f9 7e fa       	vmovq  %xmm7,%rdx
    2ec9:	c5 fd 6f bc 24 e0 00 	vmovdqa 0xe0(%rsp),%ymm7
    2ed0:	00 00 
    2ed2:	48 09 ca             	or     %rcx,%rdx
    2ed5:	c4 e1 f9 7e f1       	vmovq  %xmm6,%rcx
    2eda:	c5 fd 6f b4 24 80 00 	vmovdqa 0x80(%rsp),%ymm6
    2ee1:	00 00 
    2ee3:	48 09 d1             	or     %rdx,%rcx
    2ee6:	c4 e1 f9 7e ea       	vmovq  %xmm5,%rdx
    2eeb:	c5 fd 6f ac 24 c0 00 	vmovdqa 0xc0(%rsp),%ymm5
    2ef2:	00 00 
    2ef4:	48 09 ca             	or     %rcx,%rdx
    2ef7:	c4 e1 f9 7e e1       	vmovq  %xmm4,%rcx
    2efc:	48 09 d1             	or     %rdx,%rcx
    2eff:	c4 e1 f9 7e c2       	vmovq  %xmm0,%rdx
    2f04:	c4 e3 7d 39 f8 01    	vextracti128 $0x1,%ymm7,%xmm0
    2f0a:	48 09 ca             	or     %rcx,%rdx
    2f0d:	c4 e1 f9 7e c1       	vmovq  %xmm0,%rcx
    2f12:	c4 e3 7d 39 e8 01    	vextracti128 $0x1,%ymm5,%xmm0
    2f18:	48 09 d1             	or     %rdx,%rcx
    2f1b:	c4 e1 f9 7e c2       	vmovq  %xmm0,%rdx
    2f20:	c4 e3 7d 39 f0 01    	vextracti128 $0x1,%ymm6,%xmm0
    2f26:	48 09 ca             	or     %rcx,%rdx
    2f29:	c4 e1 f9 7e c1       	vmovq  %xmm0,%rcx
    2f2e:	48 09 d1             	or     %rdx,%rcx
    2f31:	c4 61 f9 7e f2       	vmovq  %xmm14,%rdx
    2f36:	48 09 ca             	or     %rcx,%rdx
    2f39:	8d 0c c5 08 00 00 00 	lea    0x8(,%rax,8),%ecx
    2f40:	44 01 f8             	add    %r15d,%eax
    2f43:	48 09 d6             	or     %rdx,%rsi
    2f46:	48 d3 fe             	sar    %cl,%rsi
    2f49:	44 89 f9             	mov    %r15d,%ecx
    2f4c:	41 89 f2             	mov    %esi,%r10d
    2f4f:	41 c0 ea 04          	shr    $0x4,%r10b
    2f53:	44 89 d2             	mov    %r10d,%edx
    2f56:	44 8b 94 24 a0 00 00 	mov    0xa0(%rsp),%r10d
    2f5d:	00 
    2f5e:	41 89 d0             	mov    %edx,%r8d
    2f61:	41 83 e2 03          	and    $0x3,%r10d
    2f65:	41 83 e0 03          	and    $0x3,%r8d
    2f69:	44 89 d2             	mov    %r10d,%edx
    2f6c:	44 89 44 24 68       	mov    %r8d,0x68(%rsp)
    2f71:	48 83 f9 00          	cmp    $0x0,%rcx
    2f75:	41 0f 45 d0          	cmovne %r8d,%edx
    2f79:	8d 48 01             	lea    0x1(%rax),%ecx
    2f7c:	0f b6 c9             	movzbl %cl,%ecx
    2f7f:	4c 09 d9             	or     %r11,%rcx
    2f82:	c4 e1 f9 6e f9       	vmovq  %rcx,%xmm7
    2f87:	c4 c3 c1 22 c1 01    	vpinsrq $0x1,%r9,%xmm7,%xmm0
    2f8d:	c4 e2 61 00 c0       	vpshufb %xmm0,%xmm3,%xmm0
    2f92:	c4 e1 f9 7e c1       	vmovq  %xmm0,%rcx
    2f97:	41 89 ca             	mov    %ecx,%r10d
    2f9a:	41 89 cc             	mov    %ecx,%r12d
    2f9d:	41 c0 ea 03          	shr    $0x3,%r10b
    2fa1:	41 c0 ec 06          	shr    $0x6,%r12b
    2fa5:	45 89 d0             	mov    %r10d,%r8d
    2fa8:	41 83 e2 07          	and    $0x7,%r10d
    2fac:	44 88 64 24 5c       	mov    %r12b,0x5c(%rsp)
    2fb1:	44 88 54 24 54       	mov    %r10b,0x54(%rsp)
    2fb6:	41 89 ca             	mov    %ecx,%r10d
    2fb9:	41 83 e2 07          	and    $0x7,%r10d
    2fbd:	44 88 94 24 e0 00 00 	mov    %r10b,0xe0(%rsp)
    2fc4:	00 
    2fc5:	45 0f b6 d4          	movzbl %r12b,%r10d
    2fc9:	44 89 d1             	mov    %r10d,%ecx
    2fcc:	44 89 94 24 80 00 00 	mov    %r10d,0x80(%rsp)
    2fd3:	00 
    2fd4:	45 89 f2             	mov    %r14d,%r10d
    2fd7:	c1 e1 06             	shl    $0x6,%ecx
    2fda:	0a 8c 24 e0 00 00 00 	or     0xe0(%rsp),%cl
    2fe1:	88 8c 24 c0 00 00 00 	mov    %cl,0xc0(%rsp)
    2fe8:	31 c9                	xor    %ecx,%ecx
    2fea:	41 80 fc 03          	cmp    $0x3,%r12b
    2fee:	0f 95 c1             	setne  %cl
    2ff1:	41 83 e0 07          	and    $0x7,%r8d
    2ff5:	45 31 e4             	xor    %r12d,%r12d
    2ff8:	48 83 f9 00          	cmp    $0x0,%rcx
    2ffc:	44 0f 45 d3          	cmovne %ebx,%r10d
    3000:	89 f9                	mov    %edi,%ecx
    3002:	40 c0 ef 06          	shr    $0x6,%dil
    3006:	45 01 c0             	add    %r8d,%r8d
    3009:	44 89 54 24 30       	mov    %r10d,0x30(%rsp)
    300e:	49 ba aa 6a aa aa a5 	movabs $0x155a55a5aaaa6aaa,%r10
    3015:	55 5a 15 
    3018:	83 e1 30             	and    $0x30,%ecx
    301b:	40 80 ff 03          	cmp    $0x3,%dil
    301f:	40 0f b6 ff          	movzbl %dil,%edi
    3023:	41 0f 94 c4          	sete   %r12b
    3027:	44 01 c1             	add    %r8d,%ecx
    302a:	49 d3 ea             	shr    %cl,%r10
    302d:	0f b6 4c 24 54       	movzbl 0x54(%rsp),%ecx
    3032:	41 83 e2 03          	and    $0x3,%r10d
    3036:	49 83 fc 00          	cmp    $0x0,%r12
    303a:	41 0f 45 d2          	cmovne %r10d,%edx
    303e:	41 ba 4c 00 00 00    	mov    $0x4c,%r10d
    3044:	45 89 f4             	mov    %r14d,%r12d
    3047:	49 d3 ea             	shr    %cl,%r10
    304a:	0f b6 4c 24 78       	movzbl 0x78(%rsp),%ecx
    304f:	41 83 e2 01          	and    $0x1,%r10d
    3053:	c1 e1 04             	shl    $0x4,%ecx
    3056:	49 83 fa 00          	cmp    $0x0,%r10
    305a:	44 0f 45 e3          	cmovne %ebx,%r12d
    305e:	44 01 e7             	add    %r12d,%edi
    3061:	45 89 f2             	mov    %r14d,%r10d
    3064:	09 f9                	or     %edi,%ecx
    3066:	89 f7                	mov    %esi,%edi
    3068:	81 f9 f4 0f 00 00    	cmp    $0xff4,%ecx
    306e:	0f 94 c1             	sete   %cl
    3071:	40 c0 ef 06          	shr    $0x6,%dil
    3075:	45 31 e4             	xor    %r12d,%r12d
    3078:	0f b6 c9             	movzbl %cl,%ecx
    307b:	40 0f b6 ff          	movzbl %dil,%edi
    307f:	48 83 f9 00          	cmp    $0x0,%rcx
    3083:	44 0f 45 d3          	cmovne %ebx,%r10d
    3087:	44 89 f9             	mov    %r15d,%ecx
    308a:	44 89 54 24 54       	mov    %r10d,0x54(%rsp)
    308f:	c1 e1 04             	shl    $0x4,%ecx
    3092:	41 89 ca             	mov    %ecx,%r10d
    3095:	41 0f b6 cd          	movzbl %r13b,%ecx
    3099:	44 8b 6c 24 68       	mov    0x68(%rsp),%r13d
    309e:	41 09 fa             	or     %edi,%r10d
    30a1:	41 83 fa 11          	cmp    $0x11,%r10d
    30a5:	41 0f 94 c4          	sete   %r12b
    30a9:	01 c9                	add    %ecx,%ecx
    30ab:	40 c0 ee 03          	shr    $0x3,%sil
    30af:	42 8d 0c e9          	lea    (%rcx,%r13,8),%ecx
    30b3:	41 bd 1a 05 0a 00    	mov    $0xa051a,%r13d
    30b9:	83 e6 07             	and    $0x7,%esi
    30bc:	41 d3 ed             	shr    %cl,%r13d
    30bf:	41 83 e5 03          	and    $0x3,%r13d
    30c3:	49 83 fc 00          	cmp    $0x0,%r12
    30c7:	41 0f 45 d5          	cmovne %r13d,%edx
    30cb:	44 8d 24 36          	lea    (%rsi,%rsi,1),%r12d
    30cf:	41 8d 4c 24 01       	lea    0x1(%r12),%ecx
    30d4:	c1 e1 08             	shl    $0x8,%ecx
    30d7:	44 09 e1             	or     %r12d,%ecx
    30da:	41 83 fa 13          	cmp    $0x13,%r10d
    30de:	c5 f9 6e e9          	vmovd  %ecx,%xmm5
    30e2:	44 89 c1             	mov    %r8d,%ecx
    30e5:	44 8b 84 24 80 00 00 	mov    0x80(%rsp),%r8d
    30ec:	00 
    30ed:	41 0f 94 c2          	sete   %r10b
    30f1:	41 c1 e7 0c          	shl    $0xc,%r15d
    30f5:	c5 f9 70 c5 00       	vpshufd $0x0,%xmm5,%xmm0
    30fa:	c1 e7 08             	shl    $0x8,%edi
    30fd:	45 0f b6 d2          	movzbl %r10b,%r10d
    3101:	41 c1 e0 04          	shl    $0x4,%r8d
    3105:	c4 e2 71 00 c0       	vpshufb %xmm0,%xmm1,%xmm0
    310a:	45 09 c7             	or     %r8d,%r15d
    310d:	c4 c1 f9 7e c4       	vmovq  %xmm0,%r12
    3112:	41 09 f7             	or     %esi,%r15d
    3115:	41 d3 ec             	shr    %cl,%r12d
    3118:	31 c9                	xor    %ecx,%ecx
    311a:	41 09 ff             	or     %edi,%r15d
    311d:	41 83 e4 03          	and    $0x3,%r12d
    3121:	49 83 fa 00          	cmp    $0x0,%r10
    3125:	41 0f 45 d4          	cmovne %r12d,%edx
    3129:	41 81 ff 32 13 00 00 	cmp    $0x1332,%r15d
    3130:	45 89 c2             	mov    %r8d,%r10d
    3133:	0f 97 c1             	seta   %cl
    3136:	48 83 f9 00          	cmp    $0x0,%rcx
    313a:	41 0f 45 d6          	cmovne %r14d,%edx
    313e:	89 d6                	mov    %edx,%esi
    3140:	8d 50 02             	lea    0x2(%rax),%edx
    3143:	31 c9                	xor    %ecx,%ecx
    3145:	80 7c 24 5c 03       	cmpb   $0x3,0x5c(%rsp)
    314a:	0f b6 d2             	movzbl %dl,%edx
    314d:	0f 94 c1             	sete   %cl
    3150:	83 c0 03             	add    $0x3,%eax
    3153:	48 83 f9 00          	cmp    $0x0,%rcx
    3157:	41 0f 45 f6          	cmovne %r14d,%esi
    315b:	48 8d 4a 03          	lea    0x3(%rdx),%rcx
    315f:	89 74 24 2c          	mov    %esi,0x2c(%rsp)
    3163:	48 8d 72 01          	lea    0x1(%rdx),%rsi
    3167:	49 89 d7             	mov    %rdx,%r15
    316a:	48 c1 e6 08          	shl    $0x8,%rsi
    316e:	48 c1 e1 18          	shl    $0x18,%rcx
    3172:	0f b6 c0             	movzbl %al,%eax
    3175:	4d 09 df             	or     %r11,%r15
    3178:	48 09 f1             	or     %rsi,%rcx
    317b:	48 8d 70 01          	lea    0x1(%rax),%rsi
    317f:	c4 c1 f9 6e c7       	vmovq  %r15,%xmm0
    3184:	48 09 d1             	or     %rdx,%rcx
    3187:	48 83 c2 02          	add    $0x2,%rdx
    318b:	48 c1 e6 08          	shl    $0x8,%rsi
    318f:	c4 c3 f9 22 c1 01    	vpinsrq $0x1,%r9,%xmm0,%xmm0
    3195:	48 c1 e2 10          	shl    $0x10,%rdx
    3199:	c4 e2 61 00 c0       	vpshufb %xmm0,%xmm3,%xmm0
    319e:	48 09 ca             	or     %rcx,%rdx
    31a1:	c4 c1 f9 7e c0       	vmovq  %xmm0,%r8
    31a6:	48 b9 00 00 00 00 80 	movabs $0x8080808000000000,%rcx
    31ad:	80 80 80 
    31b0:	48 09 ca             	or     %rcx,%rdx
    31b3:	c4 e1 f9 6e f2       	vmovq  %rdx,%xmm6
    31b8:	48 8d 50 03          	lea    0x3(%rax),%rdx
    31bc:	48 c1 e2 18          	shl    $0x18,%rdx
    31c0:	c4 c3 c9 22 c1 01    	vpinsrq $0x1,%r9,%xmm6,%xmm0
    31c6:	48 09 f2             	or     %rsi,%rdx
    31c9:	48 8d 70 02          	lea    0x2(%rax),%rsi
    31cd:	c4 e2 61 00 c0       	vpshufb %xmm0,%xmm3,%xmm0
    31d2:	48 09 c2             	or     %rax,%rdx
    31d5:	48 c1 e6 10          	shl    $0x10,%rsi
    31d9:	4c 09 d8             	or     %r11,%rax
    31dc:	c4 c1 f9 7e c7       	vmovq  %xmm0,%r15
    31e1:	48 09 f2             	or     %rsi,%rdx
    31e4:	c4 e1 f9 6e e8       	vmovq  %rax,%xmm5
    31e9:	31 c0                	xor    %eax,%eax
    31eb:	41 bb ff 00 00 00    	mov    $0xff,%r11d
    31f1:	48 09 ca             	or     %rcx,%rdx
    31f4:	80 bc 24 c0 00 00 00 	cmpb   $0x5,0xc0(%rsp)
    31fb:	05 
    31fc:	8b 7c 24 30          	mov    0x30(%rsp),%edi
    3200:	4c 89 7c 24 68       	mov    %r15,0x68(%rsp)
    3205:	0f 94 c0             	sete   %al
    3208:	c4 e1 f9 6e fa       	vmovq  %rdx,%xmm7
    320d:	44 89 f1             	mov    %r14d,%ecx
    3210:	45 31 ed             	xor    %r13d,%r13d
    3213:	48 83 f8 00          	cmp    $0x0,%rax
    3217:	0f 45 4c 24 68       	cmovne 0x68(%rsp),%ecx
    321c:	41 89 fc             	mov    %edi,%r12d
    321f:	c4 c3 c1 22 c1 01    	vpinsrq $0x1,%r9,%xmm7,%xmm0
    3225:	44 89 c6             	mov    %r8d,%esi
    3228:	45 89 df             	mov    %r11d,%r15d
    322b:	0f b6 84 24 e0 00 00 	movzbl 0xe0(%rsp),%eax
    3232:	00 
    3233:	41 c1 e4 08          	shl    $0x8,%r12d
    3237:	c4 e2 61 00 c0       	vpshufb %xmm0,%xmm3,%xmm0
    323c:	c4 e1 f9 7e c2       	vmovq  %xmm0,%rdx
    3241:	c4 c3 d1 22 c1 01    	vpinsrq $0x1,%r9,%xmm5,%xmm0
    3247:	45 89 c1             	mov    %r8d,%r9d
    324a:	89 44 24 5c          	mov    %eax,0x5c(%rsp)
    324e:	44 09 e0             	or     %r12d,%eax
    3251:	c4 e2 61 00 d8       	vpshufb %xmm0,%xmm3,%xmm3
    3256:	3d 04 01 00 00       	cmp    $0x104,%eax
    325b:	41 0f 94 c5          	sete   %r13b
    325f:	41 c0 e9 06          	shr    $0x6,%r9b
    3263:	40 c0 ee 03          	shr    $0x3,%sil
    3267:	41 0f b6 c1          	movzbl %r9b,%eax
    326b:	45 89 d9             	mov    %r11d,%r9d
    326e:	c1 e7 10             	shl    $0x10,%edi
    3271:	49 83 fd 00          	cmp    $0x0,%r13
    3275:	44 0f 45 c8          	cmovne %eax,%r9d
    3279:	44 89 4c 24 30       	mov    %r9d,0x30(%rsp)
    327e:	44 8b 4c 24 38       	mov    0x38(%rsp),%r9d
    3283:	83 e6 07             	and    $0x7,%esi
    3286:	89 7c 24 78          	mov    %edi,0x78(%rsp)
    328a:	42 8d 04 8d 00 00 00 	lea    0x0(,%r9,4),%eax
    3291:	00 
    3292:	83 e0 08             	and    $0x8,%eax
    3295:	09 f0                	or     %esi,%eax
    3297:	42 8d 34 cd 00 00 00 	lea    0x0(,%r9,8),%esi
    329e:	00 
    329f:	45 89 c1             	mov    %r8d,%r9d
    32a2:	45 0f b6 c0          	movzbl %r8b,%r8d
    32a6:	41 83 e1 07          	and    $0x7,%r9d
    32aa:	83 e6 08             	and    $0x8,%esi
    32ad:	49 83 fd 00          	cmp    $0x0,%r13
    32b1:	44 0f 45 f8          	cmovne %eax,%r15d
    32b5:	44 89 c8             	mov    %r9d,%eax
    32b8:	45 89 f1             	mov    %r14d,%r9d
    32bb:	09 f0                	or     %esi,%eax
    32bd:	49 83 fd 00          	cmp    $0x0,%r13
    32c1:	44 0f 45 c8          	cmovne %eax,%r9d
    32c5:	44 89 cf             	mov    %r9d,%edi
    32c8:	0f b6 84 24 c0 00 00 	movzbl 0xc0(%rsp),%eax
    32cf:	00 
    32d0:	c1 e7 08             	shl    $0x8,%edi
    32d3:	81 e7 00 07 00 00    	and    $0x700,%edi
    32d9:	0b 7c 24 78          	or     0x78(%rsp),%edi
    32dd:	09 c7                	or     %eax,%edi
    32df:	81 ff 04 05 01 00    	cmp    $0x10504,%edi
    32e5:	40 0f 94 c7          	sete   %dil
    32e9:	41 09 c4             	or     %eax,%r12d
    32ec:	c4 e1 f9 7e d8       	vmovq  %xmm3,%rax
    32f1:	40 0f b6 ff          	movzbl %dil,%edi
    32f5:	0f b6 c0             	movzbl %al,%eax
    32f8:	48 83 ff 00          	cmp    $0x0,%rdi
    32fc:	0f 45 ca             	cmovne %edx,%ecx
    32ff:	31 ff                	xor    %edi,%edi
    3301:	41 81 fc 44 01 00 00 	cmp    $0x144,%r12d
    3308:	40 0f 94 c7          	sete   %dil
    330c:	48 89 7c 24 38       	mov    %rdi,0x38(%rsp)
    3311:	44 89 f7             	mov    %r14d,%edi
    3314:	48 83 7c 24 38 00    	cmpq   $0x0,0x38(%rsp)
    331a:	0f 45 f8             	cmovne %eax,%edi
    331d:	31 c0                	xor    %eax,%eax
    331f:	41 81 fc 84 01 00 00 	cmp    $0x184,%r12d
    3326:	0f 94 c0             	sete   %al
    3329:	48 83 f8 00          	cmp    $0x0,%rax
    332d:	0f 45 ca             	cmovne %edx,%ecx
    3330:	31 d2                	xor    %edx,%edx
    3332:	80 bc 24 e0 00 00 00 	cmpb   $0x4,0xe0(%rsp)
    3339:	04 
    333a:	44 89 f0             	mov    %r14d,%eax
    333d:	0f 95 c2             	setne  %dl
    3340:	48 83 fa 00          	cmp    $0x0,%rdx
    3344:	0f 45 c3             	cmovne %ebx,%eax
    3347:	c1 e0 08             	shl    $0x8,%eax
    334a:	0b 44 24 78          	or     0x78(%rsp),%eax
    334e:	0b 84 24 80 00 00 00 	or     0x80(%rsp),%eax
    3355:	31 d2                	xor    %edx,%edx
    3357:	3d 01 01 01 00       	cmp    $0x10101,%eax
    335c:	0f 94 c2             	sete   %dl
    335f:	48 83 fa 00          	cmp    $0x0,%rdx
    3363:	41 0f 45 f8          	cmovne %r8d,%edi
    3367:	44 8b 44 24 5c       	mov    0x5c(%rsp),%r8d
    336c:	3d 02 01 01 00       	cmp    $0x10102,%eax
    3371:	ba 04 00 00 00       	mov    $0x4,%edx
    3376:	0f 94 c0             	sete   %al
    3379:	44 09 c6             	or     %r8d,%esi
    337c:	0f b6 c0             	movzbl %al,%eax
    337f:	49 83 fd 00          	cmp    $0x0,%r13
    3383:	0f 45 f2             	cmovne %edx,%esi
    3386:	48 0f be d7          	movsbq %dil,%rdx
    338a:	48 8b 7c 24 70       	mov    0x70(%rsp),%rdi
    338f:	48 83 f8 00          	cmp    $0x0,%rax
    3393:	0f 45 4c 24 68       	cmovne 0x68(%rsp),%ecx
    3398:	31 c0                	xor    %eax,%eax
    339a:	48 85 d2             	test   %rdx,%rdx
    339d:	89 c9                	mov    %ecx,%ecx
    339f:	0f 94 c0             	sete   %al
    33a2:	48 83 f8 00          	cmp    $0x0,%rax
    33a6:	48 0f 45 d1          	cmovne %rcx,%rdx
    33aa:	31 c9                	xor    %ecx,%ecx
    33ac:	80 bc 24 c0 00 00 00 	cmpb   $0x4,0xc0(%rsp)
    33b3:	04 
    33b4:	40 0f b6 c6          	movzbl %sil,%eax
    33b8:	0f 94 c1             	sete   %cl
    33bb:	48 83 f9 00          	cmp    $0x0,%rcx
    33bf:	41 0f 45 c3          	cmovne %r11d,%eax
    33c3:	44 89 c9             	mov    %r9d,%ecx
    33c6:	83 e1 07             	and    $0x7,%ecx
    33c9:	44 09 d1             	or     %r10d,%ecx
    33cc:	83 f9 05             	cmp    $0x5,%ecx
    33cf:	0f 94 c1             	sete   %cl
    33d2:	0f b6 c9             	movzbl %cl,%ecx
    33d5:	48 83 f9 00          	cmp    $0x0,%rcx
    33d9:	45 0f 45 cb          	cmovne %r11d,%r9d
    33dd:	31 c9                	xor    %ecx,%ecx
    33df:	40 80 fe 04          	cmp    $0x4,%sil
    33e3:	0f 94 c1             	sete   %cl
    33e6:	48 83 f9 00          	cmp    $0x0,%rcx
    33ea:	41 0f 45 c1          	cmovne %r9d,%eax
    33ee:	44 89 c1             	mov    %r8d,%ecx
    33f1:	41 89 c0             	mov    %eax,%r8d
    33f4:	b8 10 00 00 00       	mov    $0x10,%eax
    33f9:	44 09 d1             	or     %r10d,%ecx
    33fc:	83 f9 05             	cmp    $0x5,%ecx
    33ff:	0f 94 c1             	sete   %cl
    3402:	45 31 d2             	xor    %r10d,%r10d
    3405:	0f b6 c9             	movzbl %cl,%ecx
    3408:	4d 89 d4             	mov    %r10,%r12
    340b:	48 83 f9 00          	cmp    $0x0,%rcx
    340f:	44 0f 45 c0          	cmovne %eax,%r8d
    3413:	44 89 c6             	mov    %r8d,%esi
    3416:	e8 d5 f1 ff ff       	call   25f0 <register_value_select>
    341b:	44 89 c1             	mov    %r8d,%ecx
    341e:	4c 8b 6c 24 60       	mov    0x60(%rsp),%r13
    3423:	44 89 fe             	mov    %r15d,%esi
    3426:	49 89 c1             	mov    %rax,%r9
    3429:	48 83 f9 10          	cmp    $0x10,%rcx
    342d:	4d 0f 44 cd          	cmove  %r13,%r9
    3431:	48 81 f9 ff 00 00 00 	cmp    $0xff,%rcx
    3438:	4d 0f 44 ca          	cmove  %r10,%r9
    343c:	44 8b 54 24 40       	mov    0x40(%rsp),%r10d
    3441:	44 89 c8             	mov    %r9d,%eax
    3444:	49 83 fa 01          	cmp    $0x1,%r10
    3448:	4c 0f 44 c8          	cmove  %rax,%r9
    344c:	31 c0                	xor    %eax,%eax
    344e:	41 83 ff 04          	cmp    $0x4,%r15d
    3452:	0f 94 c0             	sete   %al
    3455:	48 83 f8 00          	cmp    $0x0,%rax
    3459:	41 0f 45 f3          	cmovne %r11d,%esi
    345d:	e8 8e f1 ff ff       	call   25f0 <register_value_select>
    3462:	89 f6                	mov    %esi,%esi
    3464:	48 83 fe 10          	cmp    $0x10,%rsi
    3468:	49 0f 44 c5          	cmove  %r13,%rax
    346c:	48 81 fe ff 00 00 00 	cmp    $0xff,%rsi
    3473:	49 0f 44 c4          	cmove  %r12,%rax
    3477:	89 c1                	mov    %eax,%ecx
    3479:	41 bc 02 00 00 00    	mov    $0x2,%r12d
    347f:	49 83 fa 01          	cmp    $0x1,%r10
    3483:	48 0f 44 c1          	cmove  %rcx,%rax
    3487:	0f b6 4c 24 30       	movzbl 0x30(%rsp),%ecx
    348c:	41 89 da             	mov    %ebx,%r10d
    348f:	41 d3 e2             	shl    %cl,%r10d
    3492:	49 63 ca             	movslq %r10d,%rcx
    3495:	48 0f af c1          	imul   %rcx,%rax
    3499:	4c 01 c8             	add    %r9,%rax
    349c:	48 01 c2             	add    %rax,%rdx
    349f:	8b 84 24 a0 00 00 00 	mov    0xa0(%rsp),%eax
    34a6:	83 e0 0f             	and    $0xf,%eax
    34a9:	8d 70 06             	lea    0x6(%rax),%esi
    34ac:	e8 3f f1 ff ff       	call   25f0 <register_value_select>
    34b1:	44 8b 7c 24 58       	mov    0x58(%rsp),%r15d
    34b6:	8b 74 24 2c          	mov    0x2c(%rsp),%esi
    34ba:	49 89 c1             	mov    %rax,%r9
    34bd:	8b 44 24 50          	mov    0x50(%rsp),%eax
    34c1:	41 8d 4f 01          	lea    0x1(%r15),%ecx
    34c5:	48 83 f8 00          	cmp    $0x0,%rax
    34c9:	0f 45 f1             	cmovne %ecx,%esi
    34cc:	41 89 f2             	mov    %esi,%r10d
    34cf:	be 04 00 00 00       	mov    $0x4,%esi
    34d4:	48 83 f8 01          	cmp    $0x1,%rax
    34d8:	49 0f 44 d1          	cmove  %r9,%rdx
    34dc:	e8 0f f1 ff ff       	call   25f0 <register_value_select>
    34e1:	44 8b 4c 24 54       	mov    0x54(%rsp),%r9d
    34e6:	44 0b 4c 24 44       	or     0x44(%rsp),%r9d
    34eb:	31 c9                	xor    %ecx,%ecx
    34ed:	49 83 f9 01          	cmp    $0x1,%r9
    34f1:	48 0f 44 d0          	cmove  %rax,%rdx
    34f5:	8b 44 24 34          	mov    0x34(%rsp),%eax
    34f9:	49 83 f9 00          	cmp    $0x0,%r9
    34fd:	45 0f 45 d4          	cmovne %r12d,%r10d
    3501:	44 01 d0             	add    %r10d,%eax
    3504:	83 f8 02             	cmp    $0x2,%eax
    3507:	44 89 d0             	mov    %r10d,%eax
    350a:	0f 97 c1             	seta   %cl
    350d:	48 83 f9 00          	cmp    $0x0,%rcx
    3511:	0f 45 c3             	cmovne %ebx,%eax
    3514:	48 8b 5c 24 48       	mov    0x48(%rsp),%rbx
    3519:	31 c9                	xor    %ecx,%ecx
    351b:	41 83 f8 10          	cmp    $0x10,%r8d
    351f:	0f 94 c1             	sete   %cl
    3522:	48 89 13             	mov    %rdx,(%rbx)
    3525:	48 8b 5c 24 20       	mov    0x20(%rsp),%rbx
    352a:	48 83 f9 00          	cmp    $0x0,%rcx
    352e:	41 0f 45 c6          	cmovne %r14d,%eax
    3532:	f6 05 e2 87 03 00 08 	testb  $0x8,0x387e2(%rip)        # 3bd1b <g_cpu_feature_indicator+0x3>
    3539:	0f 84 11 01 00 00    	je     3650 <ct_decode+0xfc0>
    353f:	62 f1 7c 48 28 03    	vmovaps (%rbx),%zmm0
    3545:	62 f1 7c 48 28 4b 01 	vmovaps 0x40(%rbx),%zmm1
    354c:	62 f1 7c 48 28 53 02 	vmovaps 0x80(%rbx),%zmm2
    3553:	62 f1 7c 48 28 5b 03 	vmovaps 0xc0(%rbx),%zmm3
    355a:	62 f1 7c 48 28 63 04 	vmovaps 0x100(%rbx),%zmm4
    3561:	62 f1 7c 48 28 6b 05 	vmovaps 0x140(%rbx),%zmm5
    3568:	62 f1 7c 48 28 73 06 	vmovaps 0x180(%rbx),%zmm6
    356f:	62 f1 7c 48 28 7b 07 	vmovaps 0x1c0(%rbx),%zmm7
    3576:	62 71 7c 48 28 43 08 	vmovaps 0x200(%rbx),%zmm8
    357d:	62 71 7c 48 28 4b 09 	vmovaps 0x240(%rbx),%zmm9
    3584:	62 71 7c 48 28 53 0a 	vmovaps 0x280(%rbx),%zmm10
    358b:	62 71 7c 48 28 5b 0b 	vmovaps 0x2c0(%rbx),%zmm11
    3592:	62 71 7c 48 28 63 0c 	vmovaps 0x300(%rbx),%zmm12
    3599:	62 71 7c 48 28 6b 0d 	vmovaps 0x340(%rbx),%zmm13
    35a0:	62 71 7c 48 28 73 0e 	vmovaps 0x380(%rbx),%zmm14
    35a7:	62 71 7c 48 28 7b 0f 	vmovaps 0x3c0(%rbx),%zmm15
    35ae:	48 8b 94 24 38 05 00 	mov    0x538(%rsp),%rdx
    35b5:	00 
    35b6:	64 48 2b 14 25 28 00 	sub    %fs:0x28,%rdx
    35bd:	00 00 
    35bf:	0f 85 03 01 00 00    	jne    36c8 <ct_decode+0x1038>
    35c5:	48 8d 65 d8          	lea    -0x28(%rbp),%rsp
    35c9:	5b                   	pop    %rbx
    35ca:	41 5c                	pop    %r12
    35cc:	41 5d                	pop    %r13
    35ce:	41 5e                	pop    %r14
    35d0:	41 5f                	pop    %r15
    35d2:	5d                   	pop    %rbp
    35d3:	c3                   	ret    
    35d4:	0f 1f 40 00          	nopl   0x0(%rax)
    35d8:	c5 fc 29 00          	vmovaps %ymm0,(%rax)
    35dc:	c5 fc 29 48 20       	vmovaps %ymm1,0x20(%rax)
    35e1:	c5 fc 29 50 40       	vmovaps %ymm2,0x40(%rax)
    35e6:	c5 fc 29 58 60       	vmovaps %ymm3,0x60(%rax)
    35eb:	c5 fc 29 a0 80 00 00 	vmovaps %ymm4,0x80(%rax)
    35f2:	00 
    35f3:	c5 fc 29 a8 a0 00 00 	vmovaps %ymm5,0xa0(%rax)
    35fa:	00 
    35fb:	c5 fc 29 b0 c0 00 00 	vmovaps %ymm6,0xc0(%rax)
    3602:	00 
    3603:	c5 fc 29 b8 e0 00 00 	vmovaps %ymm7,0xe0(%rax)
    360a:	00 
    360b:	c5 7c 29 80 00 01 00 	vmovaps %ymm8,0x100(%rax)
    3612:	00 
    3613:	c5 7c 29 88 20 01 00 	vmovaps %ymm9,0x120(%rax)
    361a:	00 
    361b:	c5 7c 29 90 40 01 00 	vmovaps %ymm10,0x140(%rax)
    3622:	00 
    3623:	c5 7c 29 98 60 01 00 	vmovaps %ymm11,0x160(%rax)
    362a:	00 
    362b:	c5 7c 29 a0 80 01 00 	vmovaps %ymm12,0x180(%rax)
    3632:	00 
    3633:	c5 7c 29 a8 a0 01 00 	vmovaps %ymm13,0x1a0(%rax)
    363a:	00 
    363b:	c5 7c 29 b0 c0 01 00 	vmovaps %ymm14,0x1c0(%rax)
    3642:	00 
    3643:	c5 7c 29 b8 e0 01 00 	vmovaps %ymm15,0x1e0(%rax)
    364a:	00 
    364b:	e9 02 f1 ff ff       	jmp    2752 <ct_decode+0xc2>
    3650:	c5 fc 28 03          	vmovaps (%rbx),%ymm0
    3654:	c5 fc 28 4b 20       	vmovaps 0x20(%rbx),%ymm1
    3659:	c5 fc 28 53 40       	vmovaps 0x40(%rbx),%ymm2
    365e:	c5 fc 28 5b 60       	vmovaps 0x60(%rbx),%ymm3
    3663:	c5 fc 28 a3 80 00 00 	vmovaps 0x80(%rbx),%ymm4
    366a:	00 
    366b:	c5 fc 28 ab a0 00 00 	vmovaps 0xa0(%rbx),%ymm5
    3672:	00 
    3673:	c5 fc 28 b3 c0 00 00 	vmovaps 0xc0(%rbx),%ymm6
    367a:	00 
    367b:	c5 fc 28 bb e0 00 00 	vmovaps 0xe0(%rbx),%ymm7
    3682:	00 
    3683:	c5 7c 28 83 00 01 00 	vmovaps 0x100(%rbx),%ymm8
    368a:	00 
    368b:	c5 7c 28 8b 20 01 00 	vmovaps 0x120(%rbx),%ymm9
    3692:	00 
    3693:	c5 7c 28 93 40 01 00 	vmovaps 0x140(%rbx),%ymm10
    369a:	00 
    369b:	c5 7c 28 9b 60 01 00 	vmovaps 0x160(%rbx),%ymm11
    36a2:	00 
    36a3:	c5 7c 28 a3 80 01 00 	vmovaps 0x180(%rbx),%ymm12
    36aa:	00 
    36ab:	c5 7c 28 ab a0 01 00 	vmovaps 0x1a0(%rbx),%ymm13
    36b2:	00 
    36b3:	c5 7c 28 b3 c0 01 00 	vmovaps 0x1c0(%rbx),%ymm14
    36ba:	00 
    36bb:	c5 7c 28 bb e0 01 00 	vmovaps 0x1e0(%rbx),%ymm15
    36c2:	00 
    36c3:	e9 e6 fe ff ff       	jmp    35ae <ct_decode+0xf1e>
    36c8:	e8 83 b1 00 00       	call   e850 <__stack_chk_fail>
    36cd:	0f 1f 00             	nopl   (%rax)

00000000000036d0 <_ZL22init_rts_contexts_emasP9_layout_tS0_m>:
    36d0:	48 39 f7             	cmp    %rsi,%rdi
    36d3:	0f 83 e7 01 00 00    	jae    38c0 <_ZL22init_rts_contexts_emasP9_layout_tS0_m+0x1f0>
    36d9:	41 56                	push   %r14
    36db:	41 55                	push   %r13
    36dd:	49 89 d5             	mov    %rdx,%r13
    36e0:	41 54                	push   %r12
    36e2:	49 89 f4             	mov    %rsi,%r12
    36e5:	55                   	push   %rbp
    36e6:	53                   	push   %rbx
    36e7:	48 89 fb             	mov    %rdi,%rbx
    36ea:	48 83 ec 10          	sub    $0x10,%rsp
    36ee:	66 f7 03 00 10       	testw  $0x1000,(%rbx)
    36f3:	0f 85 c7 00 00 00    	jne    37c0 <_ZL22init_rts_contexts_emasP9_layout_tS0_m+0xf0>
    36f9:	48 8b 6b 08          	mov    0x8(%rbx),%rbp
    36fd:	e8 ff 01 03 00       	call   33901 <get_enclave_base>
    3702:	8b 73 04             	mov    0x4(%rbx),%esi
    3705:	48 8b 4b 18          	mov    0x18(%rbx),%rcx
    3709:	4c 01 ed             	add    %r13,%rbp
    370c:	48 8d 3c 28          	lea    (%rax,%rbp,1),%rdi
    3710:	48 c1 e6 0c          	shl    $0xc,%rsi
    3714:	48 85 c9             	test   %rcx,%rcx
    3717:	74 7f                	je     3798 <_ZL22init_rts_contexts_emasP9_layout_tS0_m+0xc8>
    3719:	0f b7 43 02          	movzwl 0x2(%rbx),%eax
    371d:	a8 04                	test   $0x4,%al
    371f:	75 77                	jne    3798 <_ZL22init_rts_contexts_emasP9_layout_tS0_m+0xc8>
    3721:	89 c5                	mov    %eax,%ebp
    3723:	89 c2                	mov    %eax,%edx
    3725:	83 e5 08             	and    $0x8,%ebp
    3728:	66 83 e2 10          	and    $0x10,%dx
    372c:	0f 85 26 01 00 00    	jne    3858 <_ZL22init_rts_contexts_emasP9_layout_tS0_m+0x188>
    3732:	a8 01                	test   $0x1,%al
    3734:	0f 85 d6 00 00 00    	jne    3810 <_ZL22init_rts_contexts_emasP9_layout_tS0_m+0x140>
    373a:	66 85 d2             	test   %dx,%dx
    373d:	0f 85 15 01 00 00    	jne    3858 <_ZL22init_rts_contexts_emasP9_layout_tS0_m+0x188>
    3743:	66 85 ed             	test   %bp,%bp
    3746:	74 30                	je     3778 <_ZL22init_rts_contexts_emasP9_layout_tS0_m+0xa8>
    3748:	0f b7 03             	movzwl (%rbx),%eax
    374b:	8d 50 ef             	lea    -0x11(%rax),%edx
    374e:	66 83 fa 01          	cmp    $0x1,%dx
    3752:	76 0b                	jbe    375f <_ZL22init_rts_contexts_emasP9_layout_tS0_m+0x8f>
    3754:	ba e4 02 00 00       	mov    $0x2e4,%edx
    3759:	66 83 f8 07          	cmp    $0x7,%ax
    375d:	75 05                	jne    3764 <_ZL22init_rts_contexts_emasP9_layout_tS0_m+0x94>
    375f:	ba d4 02 00 00       	mov    $0x2d4,%edx
    3764:	45 31 c9             	xor    %r9d,%r9d
    3767:	45 31 c0             	xor    %r8d,%r8d
    376a:	31 c9                	xor    %ecx,%ecx
    376c:	e8 4f 63 00 00       	call   9ac0 <mm_alloc>
    3771:	85 c0                	test   %eax,%eax
    3773:	75 39                	jne    37ae <_ZL22init_rts_contexts_emasP9_layout_tS0_m+0xde>
    3775:	0f 1f 00             	nopl   (%rax)
    3778:	48 83 c3 20          	add    $0x20,%rbx
    377c:	49 39 dc             	cmp    %rbx,%r12
    377f:	0f 87 69 ff ff ff    	ja     36ee <_ZL22init_rts_contexts_emasP9_layout_tS0_m+0x1e>
    3785:	48 83 c4 10          	add    $0x10,%rsp
    3789:	31 c0                	xor    %eax,%eax
    378b:	5b                   	pop    %rbx
    378c:	5d                   	pop    %rbp
    378d:	41 5c                	pop    %r12
    378f:	41 5d                	pop    %r13
    3791:	41 5e                	pop    %r14
    3793:	c3                   	ret    
    3794:	0f 1f 40 00          	nopl   0x0(%rax)
    3798:	45 31 c9             	xor    %r9d,%r9d
    379b:	45 31 c0             	xor    %r8d,%r8d
    379e:	31 c9                	xor    %ecx,%ecx
    37a0:	ba 81 00 00 00       	mov    $0x81,%edx
    37a5:	e8 06 62 00 00       	call   99b0 <mm_init_ema>
    37aa:	85 c0                	test   %eax,%eax
    37ac:	74 ca                	je     3778 <_ZL22init_rts_contexts_emasP9_layout_tS0_m+0xa8>
    37ae:	b8 01 00 00 00       	mov    $0x1,%eax
    37b3:	48 83 c4 10          	add    $0x10,%rsp
    37b7:	5b                   	pop    %rbx
    37b8:	5d                   	pop    %rbp
    37b9:	41 5c                	pop    %r12
    37bb:	41 5d                	pop    %r13
    37bd:	41 5e                	pop    %r14
    37bf:	c3                   	ret    
    37c0:	8b 43 04             	mov    0x4(%rbx),%eax
    37c3:	31 ed                	xor    %ebp,%ebp
    37c5:	45 31 f6             	xor    %r14d,%r14d
    37c8:	85 c0                	test   %eax,%eax
    37ca:	74 ac                	je     3778 <_ZL22init_rts_contexts_emasP9_layout_tS0_m+0xa8>
    37cc:	0f b7 7b 02          	movzwl 0x2(%rbx),%edi
    37d0:	4c 03 73 08          	add    0x8(%rbx),%r14
    37d4:	48 89 de             	mov    %rbx,%rsi
    37d7:	4c 89 f2             	mov    %r14,%rdx
    37da:	f7 df                	neg    %edi
    37dc:	48 63 ff             	movslq %edi,%rdi
    37df:	48 c1 e7 05          	shl    $0x5,%rdi
    37e3:	48 01 df             	add    %rbx,%rdi
    37e6:	e8 e5 fe ff ff       	call   36d0 <_ZL22init_rts_contexts_emasP9_layout_tS0_m>
    37eb:	85 c0                	test   %eax,%eax
    37ed:	75 c4                	jne    37b3 <_ZL22init_rts_contexts_emasP9_layout_tS0_m+0xe3>
    37ef:	83 c5 01             	add    $0x1,%ebp
    37f2:	39 6b 04             	cmp    %ebp,0x4(%rbx)
    37f5:	77 d5                	ja     37cc <_ZL22init_rts_contexts_emasP9_layout_tS0_m+0xfc>
    37f7:	48 83 c3 20          	add    $0x20,%rbx
    37fb:	49 39 dc             	cmp    %rbx,%r12
    37fe:	0f 87 ea fe ff ff    	ja     36ee <_ZL22init_rts_contexts_emasP9_layout_tS0_m+0x1e>
    3804:	e9 7c ff ff ff       	jmp    3785 <_ZL22init_rts_contexts_emasP9_layout_tS0_m+0xb5>
    3809:	0f 1f 80 00 00 00 00 	nopl   0x0(%rax)
    3810:	0f b7 03             	movzwl (%rbx),%eax
    3813:	66 85 ed             	test   %bp,%bp
    3816:	0f 85 2f ff ff ff    	jne    374b <_ZL22init_rts_contexts_emasP9_layout_tS0_m+0x7b>
    381c:	66 83 f8 04          	cmp    $0x4,%ax
    3820:	0f 84 8a 00 00 00    	je     38b0 <_ZL22init_rts_contexts_emasP9_layout_tS0_m+0x1e0>
    3826:	83 e1 07             	and    $0x7,%ecx
    3829:	ba 80 02 00 00       	mov    $0x280,%edx
    382e:	45 31 c9             	xor    %r9d,%r9d
    3831:	45 31 c0             	xor    %r8d,%r8d
    3834:	e8 77 61 00 00       	call   99b0 <mm_init_ema>
    3839:	85 c0                	test   %eax,%eax
    383b:	0f 85 6d ff ff ff    	jne    37ae <_ZL22init_rts_contexts_emasP9_layout_tS0_m+0xde>
    3841:	48 83 c3 20          	add    $0x20,%rbx
    3845:	49 39 dc             	cmp    %rbx,%r12
    3848:	0f 87 a0 fe ff ff    	ja     36ee <_ZL22init_rts_contexts_emasP9_layout_tS0_m+0x1e>
    384e:	e9 32 ff ff ff       	jmp    3785 <_ZL22init_rts_contexts_emasP9_layout_tS0_m+0xb5>
    3853:	0f 1f 44 00 00       	nopl   0x0(%rax,%rax,1)
    3858:	45 31 c9             	xor    %r9d,%r9d
    385b:	45 31 c0             	xor    %r8d,%r8d
    385e:	b9 03 00 00 00       	mov    $0x3,%ecx
    3863:	ba 80 00 00 00       	mov    $0x80,%edx
    3868:	48 89 74 24 08       	mov    %rsi,0x8(%rsp)
    386d:	48 89 3c 24          	mov    %rdi,(%rsp)
    3871:	e8 3a 61 00 00       	call   99b0 <mm_init_ema>
    3876:	85 c0                	test   %eax,%eax
    3878:	0f 85 30 ff ff ff    	jne    37ae <_ZL22init_rts_contexts_emasP9_layout_tS0_m+0xde>
    387e:	48 8b 74 24 08       	mov    0x8(%rsp),%rsi
    3883:	48 8b 3c 24          	mov    (%rsp),%rdi
    3887:	e8 74 62 00 00       	call   9b00 <mm_dealloc>
    388c:	85 c0                	test   %eax,%eax
    388e:	0f 85 1a ff ff ff    	jne    37ae <_ZL22init_rts_contexts_emasP9_layout_tS0_m+0xde>
    3894:	66 85 ed             	test   %bp,%bp
    3897:	0f 84 db fe ff ff    	je     3778 <_ZL22init_rts_contexts_emasP9_layout_tS0_m+0xa8>
    389d:	0f b7 03             	movzwl (%rbx),%eax
    38a0:	48 8b 74 24 08       	mov    0x8(%rsp),%rsi
    38a5:	48 8b 3c 24          	mov    (%rsp),%rdi
    38a9:	e9 9d fe ff ff       	jmp    374b <_ZL22init_rts_contexts_emasP9_layout_tS0_m+0x7b>
    38ae:	66 90                	xchg   %ax,%ax
    38b0:	ba 80 01 00 00       	mov    $0x180,%edx
    38b5:	31 c9                	xor    %ecx,%ecx
    38b7:	e9 72 ff ff ff       	jmp    382e <_ZL22init_rts_contexts_emasP9_layout_tS0_m+0x15e>
    38bc:	0f 1f 40 00          	nopl   0x0(%rax)
    38c0:	31 c0                	xor    %eax,%eax
    38c2:	c3                   	ret    
    38c3:	66 2e 0f 1f 84 00 00 	cs nopw 0x0(%rax,%rax,1)
    38ca:	00 00 00 
    38cd:	0f 1f 00             	nopl   (%rax)

00000000000038d0 <init_rts_emas>:
    38d0:	f3 0f 1e fa          	endbr64 
    38d4:	41 54                	push   %r12
    38d6:	49 89 d4             	mov    %rdx,%r12
    38d9:	55                   	push   %rbp
    38da:	48 89 f5             	mov    %rsi,%rbp
    38dd:	48 83 ec 08          	sub    $0x8,%rsp
    38e1:	e8 ca 32 00 00       	call   6bb0 <init_segment_emas>
    38e6:	85 c0                	test   %eax,%eax
    38e8:	74 0e                	je     38f8 <init_rts_emas+0x28>
    38ea:	48 83 c4 08          	add    $0x8,%rsp
    38ee:	5d                   	pop    %rbp
    38ef:	41 5c                	pop    %r12
    38f1:	c3                   	ret    
    38f2:	66 0f 1f 44 00 00    	nopw   0x0(%rax,%rax,1)
    38f8:	48 83 c4 08          	add    $0x8,%rsp
    38fc:	4c 89 e6             	mov    %r12,%rsi
    38ff:	48 89 ef             	mov    %rbp,%rdi
    3902:	31 d2                	xor    %edx,%edx
    3904:	5d                   	pop    %rbp
    3905:	41 5c                	pop    %r12
    3907:	e9 c4 fd ff ff       	jmp    36d0 <_ZL22init_rts_contexts_emasP9_layout_tS0_m>
    390c:	0f 1f 40 00          	nopl   0x0(%rax)

0000000000003910 <sgx_mm_alloc_ocall>:
    3910:	f3 0f 1e fa          	endbr64 
    3914:	41 56                	push   %r14
    3916:	41 89 ce             	mov    %ecx,%r14d
    3919:	41 55                	push   %r13
    391b:	49 89 fd             	mov    %rdi,%r13
    391e:	bf 20 00 00 00       	mov    $0x20,%edi
    3923:	41 54                	push   %r12
    3925:	49 89 f4             	mov    %rsi,%r12
    3928:	55                   	push   %rbp
    3929:	89 d5                	mov    %edx,%ebp
    392b:	53                   	push   %rbx
    392c:	e8 2f 04 00 00       	call   3d60 <sgx_ocalloc>
    3931:	48 85 c0             	test   %rax,%rax
    3934:	74 52                	je     3988 <sgx_mm_alloc_ocall+0x78>
    3936:	4c 89 60 10          	mov    %r12,0x10(%rax)
    393a:	48 89 c6             	mov    %rax,%rsi
    393d:	bf fa ff ff ff       	mov    $0xfffffffa,%edi
    3942:	48 89 c3             	mov    %rax,%rbx
    3945:	4c 89 68 08          	mov    %r13,0x8(%rax)
    3949:	41 bc 0e 00 00 00    	mov    $0xe,%r12d
    394f:	89 68 18             	mov    %ebp,0x18(%rax)
    3952:	44 89 70 1c          	mov    %r14d,0x1c(%rax)
    3956:	e8 05 1a 00 00       	call   5360 <sgx_ocall>
    395b:	85 c0                	test   %eax,%eax
    395d:	74 11                	je     3970 <sgx_mm_alloc_ocall+0x60>
    395f:	e8 dc 04 00 00       	call   3e40 <sgx_ocfree>
    3964:	5b                   	pop    %rbx
    3965:	44 89 e0             	mov    %r12d,%eax
    3968:	5d                   	pop    %rbp
    3969:	41 5c                	pop    %r12
    396b:	41 5d                	pop    %r13
    396d:	41 5e                	pop    %r14
    396f:	c3                   	ret    
    3970:	44 8b 23             	mov    (%rbx),%r12d
    3973:	b8 0e 00 00 00       	mov    $0xe,%eax
    3978:	45 85 e4             	test   %r12d,%r12d
    397b:	44 0f 45 e0          	cmovne %eax,%r12d
    397f:	eb de                	jmp    395f <sgx_mm_alloc_ocall+0x4f>
    3981:	0f 1f 80 00 00 00 00 	nopl   0x0(%rax)
    3988:	e8 b3 04 00 00       	call   3e40 <sgx_ocfree>
    398d:	41 bc 01 00 00 00    	mov    $0x1,%r12d
    3993:	5b                   	pop    %rbx
    3994:	5d                   	pop    %rbp
    3995:	44 89 e0             	mov    %r12d,%eax
    3998:	41 5c                	pop    %r12
    399a:	41 5d                	pop    %r13
    399c:	41 5e                	pop    %r14
    399e:	c3                   	ret    
    399f:	90                   	nop

00000000000039a0 <sgx_mm_modify_ocall>:
    39a0:	f3 0f 1e fa          	endbr64 
    39a4:	41 56                	push   %r14
    39a6:	41 89 ce             	mov    %ecx,%r14d
    39a9:	41 55                	push   %r13
    39ab:	49 89 fd             	mov    %rdi,%r13
    39ae:	bf 20 00 00 00       	mov    $0x20,%edi
    39b3:	41 54                	push   %r12
    39b5:	49 89 f4             	mov    %rsi,%r12
    39b8:	55                   	push   %rbp
    39b9:	89 d5                	mov    %edx,%ebp
    39bb:	53                   	push   %rbx
    39bc:	e8 9f 03 00 00       	call   3d60 <sgx_ocalloc>
    39c1:	48 85 c0             	test   %rax,%rax
    39c4:	74 52                	je     3a18 <sgx_mm_modify_ocall+0x78>
    39c6:	4c 89 60 10          	mov    %r12,0x10(%rax)
    39ca:	48 89 c6             	mov    %rax,%rsi
    39cd:	bf f9 ff ff ff       	mov    $0xfffffff9,%edi
    39d2:	48 89 c3             	mov    %rax,%rbx
    39d5:	4c 89 68 08          	mov    %r13,0x8(%rax)
    39d9:	41 bc 0e 00 00 00    	mov    $0xe,%r12d
    39df:	89 68 18             	mov    %ebp,0x18(%rax)
    39e2:	44 89 70 1c          	mov    %r14d,0x1c(%rax)
    39e6:	e8 75 19 00 00       	call   5360 <sgx_ocall>
    39eb:	85 c0                	test   %eax,%eax
    39ed:	74 11                	je     3a00 <sgx_mm_modify_ocall+0x60>
    39ef:	e8 4c 04 00 00       	call   3e40 <sgx_ocfree>
    39f4:	5b                   	pop    %rbx
    39f5:	44 89 e0             	mov    %r12d,%eax
    39f8:	5d                   	pop    %rbp
    39f9:	41 5c                	pop    %r12
    39fb:	41 5d                	pop    %r13
    39fd:	41 5e                	pop    %r14
    39ff:	c3                   	ret    
    3a00:	44 8b 23             	mov    (%rbx),%r12d
    3a03:	b8 0e 00 00 00       	mov    $0xe,%eax
    3a08:	45 85 e4             	test   %r12d,%r12d
    3a0b:	44 0f 45 e0          	cmovne %eax,%r12d
    3a0f:	eb de                	jmp    39ef <sgx_mm_modify_ocall+0x4f>
    3a11:	0f 1f 80 00 00 00 00 	nopl   0x0(%rax)
    3a18:	e8 23 04 00 00       	call   3e40 <sgx_ocfree>
    3a1d:	41 bc 01 00 00 00    	mov    $0x1,%r12d
    3a23:	5b                   	pop    %rbx
    3a24:	5d                   	pop    %rbp
    3a25:	44 89 e0             	mov    %r12d,%eax
    3a28:	41 5c                	pop    %r12
    3a2a:	41 5d                	pop    %r13
    3a2c:	41 5e                	pop    %r14
    3a2e:	c3                   	ret    
    3a2f:	90                   	nop

0000000000003a30 <sgx_mm_register_pfhandler>:
    3a30:	f3 0f 1e fa          	endbr64 
    3a34:	31 c0                	xor    %eax,%eax
    3a36:	48 83 3d da c1 03 00 	cmpq   $0x0,0x3c1da(%rip)        # 3fc18 <g_mm_pfhandler>
    3a3d:	00 
    3a3e:	74 08                	je     3a48 <sgx_mm_register_pfhandler+0x18>
    3a40:	c3                   	ret    
    3a41:	0f 1f 80 00 00 00 00 	nopl   0x0(%rax)
    3a48:	48 89 3d c9 c1 03 00 	mov    %rdi,0x3c1c9(%rip)        # 3fc18 <g_mm_pfhandler>
    3a4f:	b8 01 00 00 00       	mov    $0x1,%eax
    3a54:	c3                   	ret    
    3a55:	66 2e 0f 1f 84 00 00 	cs nopw 0x0(%rax,%rax,1)
    3a5c:	00 00 00 
    3a5f:	90                   	nop

0000000000003a60 <sgx_mm_unregister_pfhandler>:
    3a60:	f3 0f 1e fa          	endbr64 
    3a64:	31 c0                	xor    %eax,%eax
    3a66:	48 39 3d ab c1 03 00 	cmp    %rdi,0x3c1ab(%rip)        # 3fc18 <g_mm_pfhandler>
    3a6d:	74 01                	je     3a70 <sgx_mm_unregister_pfhandler+0x10>
    3a6f:	c3                   	ret    
    3a70:	48 c7 05 9d c1 03 00 	movq   $0x0,0x3c19d(%rip)        # 3fc18 <g_mm_pfhandler>
    3a77:	00 00 00 00 
    3a7b:	b8 01 00 00 00       	mov    $0x1,%eax
    3a80:	c3                   	ret    
    3a81:	66 2e 0f 1f 84 00 00 	cs nopw 0x0(%rax,%rax,1)
    3a88:	00 00 00 
    3a8b:	0f 1f 44 00 00       	nopl   0x0(%rax,%rax,1)

0000000000003a90 <sgx_mm_mutex_create>:
    3a90:	f3 0f 1e fa          	endbr64 
    3a94:	48 83 ec 08          	sub    $0x8,%rsp
    3a98:	bf 18 00 00 00       	mov    $0x18,%edi
    3a9d:	e8 2e 77 00 00       	call   b1d0 <dlmalloc>
    3aa2:	48 85 c0             	test   %rax,%rax
    3aa5:	74 16                	je     3abd <sgx_mm_mutex_create+0x2d>
    3aa7:	48 c7 00 00 00 00 00 	movq   $0x0,(%rax)
    3aae:	c7 40 08 00 00 00 00 	movl   $0x0,0x8(%rax)
    3ab5:	48 c7 40 10 00 00 00 	movq   $0x0,0x10(%rax)
    3abc:	00 
    3abd:	48 83 c4 08          	add    $0x8,%rsp
    3ac1:	c3                   	ret    
    3ac2:	66 2e 0f 1f 84 00 00 	cs nopw 0x0(%rax,%rax,1)
    3ac9:	00 00 00 
    3acc:	0f 1f 40 00          	nopl   0x0(%rax)

0000000000003ad0 <sgx_mm_mutex_lock>:
    3ad0:	f3 0f 1e fa          	endbr64 
    3ad4:	53                   	push   %rbx
    3ad5:	48 89 fb             	mov    %rdi,%rbx
    3ad8:	0f 1f 84 00 00 00 00 	nopl   0x0(%rax,%rax,1)
    3adf:	00 
    3ae0:	48 89 df             	mov    %rbx,%rdi
    3ae3:	e8 78 ae 00 00       	call   e960 <sgx_thread_spin_trylock>
    3ae8:	85 c0                	test   %eax,%eax
    3aea:	75 f4                	jne    3ae0 <sgx_mm_mutex_lock+0x10>
    3aec:	5b                   	pop    %rbx
    3aed:	c3                   	ret    
    3aee:	66 90                	xchg   %ax,%ax

0000000000003af0 <sgx_mm_mutex_unlock>:
    3af0:	f3 0f 1e fa          	endbr64 
    3af4:	e9 f7 ae 00 00       	jmp    e9f0 <sgx_thread_spin_unlock>
    3af9:	0f 1f 80 00 00 00 00 	nopl   0x0(%rax)

0000000000003b00 <sgx_mm_mutex_destroy>:
    3b00:	f3 0f 1e fa          	endbr64 
    3b04:	41 54                	push   %r12
    3b06:	55                   	push   %rbp
    3b07:	48 89 fd             	mov    %rdi,%rbp
    3b0a:	48 83 ec 08          	sub    $0x8,%rsp
    3b0e:	e8 cd ad 00 00       	call   e8e0 <sgx_thread_spin_destroy>
    3b13:	48 89 ef             	mov    %rbp,%rdi
    3b16:	41 89 c4             	mov    %eax,%r12d
    3b19:	e8 92 93 00 00       	call   ceb0 <dlfree>
    3b1e:	48 83 c4 08          	add    $0x8,%rsp
    3b22:	44 89 e0             	mov    %r12d,%eax
    3b25:	5d                   	pop    %rbp
    3b26:	41 5c                	pop    %r12
    3b28:	c3                   	ret    
    3b29:	0f 1f 80 00 00 00 00 	nopl   0x0(%rax)

0000000000003b30 <sgx_mm_is_within_enclave>:
    3b30:	f3 0f 1e fa          	endbr64 
    3b34:	48 83 ec 08          	sub    $0x8,%rsp
    3b38:	e8 73 01 00 00       	call   3cb0 <sgx_is_within_enclave>
    3b3d:	85 c0                	test   %eax,%eax
    3b3f:	0f 95 c0             	setne  %al
    3b42:	48 83 c4 08          	add    $0x8,%rsp
    3b46:	c3                   	ret    
    3b47:	66 0f 1f 84 00 00 00 	nopw   0x0(%rax,%rax,1)
    3b4e:	00 00 

0000000000003b50 <init_optimized_libs>:
    3b50:	f3 0f 1e fa          	endbr64 
    3b54:	41 54                	push   %r12
    3b56:	49 89 f4             	mov    %rsi,%r12
    3b59:	55                   	push   %rbp
    3b5a:	48 89 fd             	mov    %rdi,%rbp
    3b5d:	53                   	push   %rbx
    3b5e:	48 89 d3             	mov    %rdx,%rbx
    3b61:	e8 a7 fd 02 00       	call   3390d <get_enclave_state>
    3b66:	83 f8 01             	cmp    $0x1,%eax
    3b69:	0f 85 09 01 00 00    	jne    3c78 <init_optimized_libs+0x128>
    3b6f:	48 b8 00 00 00 00 00 	movabs $0xff00000000000000,%rax
    3b76:	00 00 ff 
    3b79:	48 85 c5             	test   %rax,%rbp
    3b7c:	0f 85 ce 00 00 00    	jne    3c50 <init_optimized_libs+0x100>
    3b82:	48 f7 c5 00 fe ff ff 	test   $0xfffffffffffffe00,%rbp
    3b89:	0f 84 e9 00 00 00    	je     3c78 <init_optimized_libs+0x128>
    3b8f:	40 f6 c5 20          	test   $0x20,%bpl
    3b93:	74 10                	je     3ba5 <init_optimized_libs+0x55>
    3b95:	48 89 e8             	mov    %rbp,%rax
    3b98:	83 e0 1f             	and    $0x1f,%eax
    3b9b:	48 83 f8 1f          	cmp    $0x1f,%rax
    3b9f:	0f 85 d3 00 00 00    	jne    3c78 <init_optimized_libs+0x128>
    3ba5:	40 f6 c5 40          	test   $0x40,%bpl
    3ba9:	74 10                	je     3bbb <init_optimized_libs+0x6b>
    3bab:	48 89 e8             	mov    %rbp,%rax
    3bae:	83 e0 3f             	and    $0x3f,%eax
    3bb1:	48 83 f8 3f          	cmp    $0x3f,%rax
    3bb5:	0f 85 bd 00 00 00    	jne    3c78 <init_optimized_libs+0x128>
    3bbb:	40 f6 c5 80          	test   $0x80,%bpl
    3bbf:	74 10                	je     3bd1 <init_optimized_libs+0x81>
    3bc1:	48 89 e8             	mov    %rbp,%rax
    3bc4:	83 e0 7f             	and    $0x7f,%eax
    3bc7:	48 83 f8 7f          	cmp    $0x7f,%rax
    3bcb:	0f 85 a7 00 00 00    	jne    3c78 <init_optimized_libs+0x128>
    3bd1:	f7 c5 00 01 00 00    	test   $0x100,%ebp
    3bd7:	74 10                	je     3be9 <init_optimized_libs+0x99>
    3bd9:	40 0f b6 c5          	movzbl %bpl,%eax
    3bdd:	48 3d ff 00 00 00    	cmp    $0xff,%rax
    3be3:	0f 85 8f 00 00 00    	jne    3c78 <init_optimized_libs+0x128>
    3be9:	f7 c5 00 02 00 00    	test   $0x200,%ebp
    3bef:	74 10                	je     3c01 <init_optimized_libs+0xb1>
    3bf1:	48 89 e8             	mov    %rbp,%rax
    3bf4:	25 ff 01 00 00       	and    $0x1ff,%eax
    3bf9:	48 3d ff 01 00 00    	cmp    $0x1ff,%rax
    3bff:	75 77                	jne    3c78 <init_optimized_libs+0x128>
    3c01:	f7 c5 00 04 00 00    	test   $0x400,%ebp
    3c07:	75 5f                	jne    3c68 <init_optimized_libs+0x118>
    3c09:	48 89 d8             	mov    %rbx,%rax
    3c0c:	83 e0 06             	and    $0x6,%eax
    3c0f:	48 83 f8 06          	cmp    $0x6,%rax
    3c13:	74 73                	je     3c88 <init_optimized_libs+0x138>
    3c15:	48 b8 ff 7f 12 86 08 	movabs $0xfffe200886127fff,%rax
    3c1c:	20 fe ff 
    3c1f:	48 21 c5             	and    %rax,%rbp
    3c22:	48 8d 1d ef 80 03 00 	lea    0x380ef(%rip),%rbx        # 3bd18 <g_cpu_feature_indicator>
    3c29:	48 89 ef             	mov    %rbp,%rdi
    3c2c:	48 89 2b             	mov    %rbp,(%rbx)
    3c2f:	e8 fc ab 00 00       	call   e830 <sgx_init_string_lib>
    3c34:	85 c0                	test   %eax,%eax
    3c36:	75 40                	jne    3c78 <init_optimized_libs+0x128>
    3c38:	48 8b 3b             	mov    (%rbx),%rdi
    3c3b:	4c 89 e6             	mov    %r12,%rsi
    3c3e:	e8 4d 59 01 00       	call   19590 <sgx_init_crypto_lib>
    3c43:	5b                   	pop    %rbx
    3c44:	5d                   	pop    %rbp
    3c45:	f7 d8                	neg    %eax
    3c47:	41 5c                	pop    %r12
    3c49:	19 c0                	sbb    %eax,%eax
    3c4b:	c3                   	ret    
    3c4c:	0f 1f 40 00          	nopl   0x0(%rax)
    3c50:	48 b8 ff ff ff ff ff 	movabs $0xffffffffffffff,%rax
    3c57:	ff ff 00 
    3c5a:	48 21 c5             	and    %rax,%rbp
    3c5d:	e9 20 ff ff ff       	jmp    3b82 <init_optimized_libs+0x32>
    3c62:	66 0f 1f 44 00 00    	nopw   0x0(%rax,%rax,1)
    3c68:	48 89 e8             	mov    %rbp,%rax
    3c6b:	25 ff 03 00 00       	and    $0x3ff,%eax
    3c70:	48 3d ff 03 00 00    	cmp    $0x3ff,%rax
    3c76:	74 91                	je     3c09 <init_optimized_libs+0xb9>
    3c78:	5b                   	pop    %rbx
    3c79:	b8 ff ff ff ff       	mov    $0xffffffff,%eax
    3c7e:	5d                   	pop    %rbp
    3c7f:	41 5c                	pop    %r12
    3c81:	c3                   	ret    
    3c82:	66 0f 1f 44 00 00    	nopw   0x0(%rax,%rax,1)
    3c88:	48 89 d8             	mov    %rbx,%rax
    3c8b:	25 e0 00 00 00       	and    $0xe0,%eax
    3c90:	48 3d e0 00 00 00    	cmp    $0xe0,%rax
    3c96:	74 8a                	je     3c22 <init_optimized_libs+0xd2>
    3c98:	48 b8 ff ff ff b6 18 	movabs $0xfffee018b6ffffff,%rax
    3c9f:	e0 fe ff 
    3ca2:	48 21 c5             	and    %rax,%rbp
    3ca5:	e9 78 ff ff ff       	jmp    3c22 <init_optimized_libs+0xd2>
    3caa:	66 0f 1f 44 00 00    	nopw   0x0(%rax,%rax,1)

0000000000003cb0 <sgx_is_within_enclave>:
    3cb0:	f3 0f 1e fa          	endbr64 
    3cb4:	48 8d 05 4d 80 03 00 	lea    0x3804d(%rip),%rax        # 3bd08 <g_enclave_base>
    3cbb:	48 8b 10             	mov    (%rax),%rdx
    3cbe:	48 8d 05 3b 80 03 00 	lea    0x3803b(%rip),%rax        # 3bd00 <g_enclave_size>
    3cc5:	48 8b 08             	mov    (%rax),%rcx
    3cc8:	48 01 d1             	add    %rdx,%rcx
    3ccb:	48 89 c8             	mov    %rcx,%rax
    3cce:	48 83 e8 01          	sub    $0x1,%rax
    3cd2:	48 85 f6             	test   %rsi,%rsi
    3cd5:	74 21                	je     3cf8 <sgx_is_within_enclave+0x48>
    3cd7:	48 83 ee 01          	sub    $0x1,%rsi
    3cdb:	48 01 fe             	add    %rdi,%rsi
    3cde:	0f 93 c1             	setae  %cl
    3ce1:	48 39 d7             	cmp    %rdx,%rdi
    3ce4:	0f 93 c2             	setae  %dl
    3ce7:	21 ca                	and    %ecx,%edx
    3ce9:	48 39 c6             	cmp    %rax,%rsi
    3cec:	0f 96 c0             	setbe  %al
    3cef:	0f b6 c0             	movzbl %al,%eax
    3cf2:	21 d0                	and    %edx,%eax
    3cf4:	c3                   	ret    
    3cf5:	0f 1f 00             	nopl   (%rax)
    3cf8:	48 89 fe             	mov    %rdi,%rsi
    3cfb:	b9 01 00 00 00       	mov    $0x1,%ecx
    3d00:	eb df                	jmp    3ce1 <sgx_is_within_enclave+0x31>
    3d02:	66 2e 0f 1f 84 00 00 	cs nopw 0x0(%rax,%rax,1)
    3d09:	00 00 00 
    3d0c:	0f 1f 40 00          	nopl   0x0(%rax)

0000000000003d10 <sgx_is_outside_enclave>:
    3d10:	f3 0f 1e fa          	endbr64 
    3d14:	48 85 f6             	test   %rsi,%rsi
    3d17:	74 0f                	je     3d28 <sgx_is_outside_enclave+0x18>
    3d19:	48 83 ee 01          	sub    $0x1,%rsi
    3d1d:	48 01 fe             	add    %rdi,%rsi
    3d20:	73 09                	jae    3d2b <sgx_is_outside_enclave+0x1b>
    3d22:	31 c0                	xor    %eax,%eax
    3d24:	c3                   	ret    
    3d25:	0f 1f 00             	nopl   (%rax)
    3d28:	48 89 fe             	mov    %rdi,%rsi
    3d2b:	48 8d 05 d6 7f 03 00 	lea    0x37fd6(%rip),%rax        # 3bd08 <g_enclave_base>
    3d32:	48 8b 10             	mov    (%rax),%rdx
    3d35:	48 8d 05 c4 7f 03 00 	lea    0x37fc4(%rip),%rax        # 3bd00 <g_enclave_size>
    3d3c:	48 8b 08             	mov    (%rax),%rcx
    3d3f:	48 01 d1             	add    %rdx,%rcx
    3d42:	48 89 c8             	mov    %rcx,%rax
    3d45:	48 83 e8 01          	sub    $0x1,%rax
    3d49:	48 39 c7             	cmp    %rax,%rdi
    3d4c:	0f 97 c0             	seta   %al
    3d4f:	48 39 f2             	cmp    %rsi,%rdx
    3d52:	0f 97 c2             	seta   %dl
    3d55:	09 d0                	or     %edx,%eax
    3d57:	0f b6 c0             	movzbl %al,%eax
    3d5a:	c3                   	ret    
    3d5b:	0f 1f 44 00 00       	nopl   0x0(%rax,%rax,1)

0000000000003d60 <sgx_ocalloc>:
    3d60:	f3 0f 1e fa          	endbr64 
    3d64:	53                   	push   %rbx
    3d65:	48 89 fb             	mov    %rdi,%rbx
    3d68:	48 83 ec 10          	sub    $0x10,%rsp
    3d6c:	e8 db fb 02 00       	call   3394c <get_thread_data>
    3d71:	48 8d 15 90 7f 03 00 	lea    0x37f90(%rip),%rdx        # 3bd08 <g_enclave_base>
    3d78:	48 8b 48 20          	mov    0x20(%rax),%rcx
    3d7c:	48 8b 32             	mov    (%rdx),%rsi
    3d7f:	48 8d 15 7a 7f 03 00 	lea    0x37f7a(%rip),%rdx        # 3bd00 <g_enclave_size>
    3d86:	48 8b 81 90 00 00 00 	mov    0x90(%rcx),%rax
    3d8d:	48 8b 3a             	mov    (%rdx),%rdi
    3d90:	48 89 c2             	mov    %rax,%rdx
    3d93:	48 83 c2 07          	add    $0x7,%rdx
    3d97:	72 33                	jb     3dcc <sgx_ocalloc+0x6c>
    3d99:	48 8d 7c 3e ff       	lea    -0x1(%rsi,%rdi,1),%rdi
    3d9e:	48 39 d6             	cmp    %rdx,%rsi
    3da1:	77 05                	ja     3da8 <sgx_ocalloc+0x48>
    3da3:	48 39 f8             	cmp    %rdi,%rax
    3da6:	76 24                	jbe    3dcc <sgx_ocalloc+0x6c>
    3da8:	48 39 d8             	cmp    %rbx,%rax
    3dab:	72 1f                	jb     3dcc <sgx_ocalloc+0x6c>
    3dad:	48 89 c2             	mov    %rax,%rdx
    3db0:	48 29 da             	sub    %rbx,%rdx
    3db3:	49 89 d0             	mov    %rdx,%r8
    3db6:	49 83 e0 f0          	and    $0xfffffffffffffff0,%r8
    3dba:	48 85 db             	test   %rbx,%rbx
    3dbd:	75 19                	jne    3dd8 <sgx_ocalloc+0x78>
    3dbf:	4c 89 c3             	mov    %r8,%rbx
    3dc2:	48 39 de             	cmp    %rbx,%rsi
    3dc5:	77 21                	ja     3de8 <sgx_ocalloc+0x88>
    3dc7:	49 39 f8             	cmp    %rdi,%r8
    3dca:	77 1c                	ja     3de8 <sgx_ocalloc+0x88>
    3dcc:	e8 6f ff 02 00       	call   33d40 <abort>
    3dd1:	0f 1f 80 00 00 00 00 	nopl   0x0(%rax)
    3dd8:	48 83 eb 01          	sub    $0x1,%rbx
    3ddc:	4c 01 c3             	add    %r8,%rbx
    3ddf:	72 eb                	jb     3dcc <sgx_ocalloc+0x6c>
    3de1:	eb df                	jmp    3dc2 <sgx_ocalloc+0x62>
    3de3:	0f 1f 44 00 00       	nopl   0x0(%rax,%rax,1)
    3de8:	48 83 e8 01          	sub    $0x1,%rax
    3dec:	48 25 00 f0 ff ff    	and    $0xfffffffffffff000,%rax
    3df2:	48 81 e2 00 f0 ff ff 	and    $0xfffffffffffff000,%rdx
    3df9:	75 1d                	jne    3e18 <sgx_ocalloc+0xb8>
    3dfb:	eb cf                	jmp    3dcc <sgx_ocalloc+0x6c>
    3dfd:	0f 1f 00             	nopl   (%rax)
    3e00:	48 8b 44 24 08       	mov    0x8(%rsp),%rax
    3e05:	48 8b 44 24 08       	mov    0x8(%rsp),%rax
    3e0a:	c6 00 00             	movb   $0x0,(%rax)
    3e0d:	48 8b 44 24 08       	mov    0x8(%rsp),%rax
    3e12:	48 2d 00 10 00 00    	sub    $0x1000,%rax
    3e18:	48 89 44 24 08       	mov    %rax,0x8(%rsp)
    3e1d:	48 8b 44 24 08       	mov    0x8(%rsp),%rax
    3e22:	48 39 d0             	cmp    %rdx,%rax
    3e25:	73 d9                	jae    3e00 <sgx_ocalloc+0xa0>
    3e27:	4c 89 81 90 00 00 00 	mov    %r8,0x90(%rcx)
    3e2e:	48 83 c4 10          	add    $0x10,%rsp
    3e32:	4c 89 c0             	mov    %r8,%rax
    3e35:	5b                   	pop    %rbx
    3e36:	c3                   	ret    
    3e37:	66 0f 1f 84 00 00 00 	nopw   0x0(%rax,%rax,1)
    3e3e:	00 00 

0000000000003e40 <sgx_ocfree>:
    3e40:	f3 0f 1e fa          	endbr64 
    3e44:	48 83 ec 08          	sub    $0x8,%rsp
    3e48:	e8 ff fa 02 00       	call   3394c <get_thread_data>
    3e4d:	48 8d 15 b4 7e 03 00 	lea    0x37eb4(%rip),%rdx        # 3bd08 <g_enclave_base>
    3e54:	48 8d 0d a5 7e 03 00 	lea    0x37ea5(%rip),%rcx        # 3bd00 <g_enclave_size>
    3e5b:	48 8b 70 20          	mov    0x20(%rax),%rsi
    3e5f:	48 8b 40 08          	mov    0x8(%rax),%rax
    3e63:	48 8b 12             	mov    (%rdx),%rdx
    3e66:	48 8b 09             	mov    (%rcx),%rcx
    3e69:	48 8b 40 e8          	mov    -0x18(%rax),%rax
    3e6d:	48 89 c7             	mov    %rax,%rdi
    3e70:	48 83 c7 07          	add    $0x7,%rdi
    3e74:	72 0f                	jb     3e85 <sgx_ocfree+0x45>
    3e76:	48 8d 4c 0a ff       	lea    -0x1(%rdx,%rcx,1),%rcx
    3e7b:	48 39 c8             	cmp    %rcx,%rax
    3e7e:	77 10                	ja     3e90 <sgx_ocfree+0x50>
    3e80:	48 39 fa             	cmp    %rdi,%rdx
    3e83:	77 0b                	ja     3e90 <sgx_ocfree+0x50>
    3e85:	e8 b6 fe 02 00       	call   33d40 <abort>
    3e8a:	66 0f 1f 44 00 00    	nopw   0x0(%rax,%rax,1)
    3e90:	48 89 86 90 00 00 00 	mov    %rax,0x90(%rsi)
    3e97:	48 83 c4 08          	add    $0x8,%rsp
    3e9b:	c3                   	ret    
    3e9c:	0f 1f 40 00          	nopl   0x0(%rax)

0000000000003ea0 <sgx_read_rand>:
    3ea0:	f3 0f 1e fa          	endbr64 
    3ea4:	41 55                	push   %r13
    3ea6:	41 54                	push   %r12
    3ea8:	55                   	push   %rbp
    3ea9:	53                   	push   %rbx
    3eaa:	48 83 ec 18          	sub    $0x18,%rsp
    3eae:	64 48 8b 04 25 28 00 	mov    %fs:0x28,%rax
    3eb5:	00 00 
    3eb7:	48 89 44 24 08       	mov    %rax,0x8(%rsp)
    3ebc:	31 c0                	xor    %eax,%eax
    3ebe:	48 85 ff             	test   %rdi,%rdi
    3ec1:	0f 84 e9 00 00 00    	je     3fb0 <sgx_read_rand+0x110>
    3ec7:	48 89 f3             	mov    %rsi,%rbx
    3eca:	48 85 f6             	test   %rsi,%rsi
    3ecd:	0f 84 dd 00 00 00    	je     3fb0 <sgx_read_rand+0x110>
    3ed3:	48 8d 05 2e 7e 03 00 	lea    0x37e2e(%rip),%rax        # 3bd08 <g_enclave_base>
    3eda:	45 31 c9             	xor    %r9d,%r9d
    3edd:	48 89 fd             	mov    %rdi,%rbp
    3ee0:	48 8b 08             	mov    (%rax),%rcx
    3ee3:	48 8d 05 16 7e 03 00 	lea    0x37e16(%rip),%rax        # 3bd00 <g_enclave_size>
    3eea:	48 8b 10             	mov    (%rax),%rdx
    3eed:	48 8d 46 ff          	lea    -0x1(%rsi),%rax
    3ef1:	48 01 ca             	add    %rcx,%rdx
    3ef4:	48 83 ea 01          	sub    $0x1,%rdx
    3ef8:	48 01 f8             	add    %rdi,%rax
    3efb:	41 0f 92 c1          	setb   %r9b
    3eff:	40 0f 93 c7          	setae  %dil
    3f03:	48 39 c2             	cmp    %rax,%rdx
    3f06:	40 0f 93 c6          	setae  %sil
    3f0a:	40 84 f7             	test   %sil,%dil
    3f0d:	74 05                	je     3f14 <sgx_read_rand+0x74>
    3f0f:	48 39 cd             	cmp    %rcx,%rbp
    3f12:	73 3c                	jae    3f50 <sgx_read_rand+0xb0>
    3f14:	41 b8 02 00 00 00    	mov    $0x2,%r8d
    3f1a:	4d 85 c9             	test   %r9,%r9
    3f1d:	75 11                	jne    3f30 <sgx_read_rand+0x90>
    3f1f:	48 39 c1             	cmp    %rax,%rcx
    3f22:	77 2c                	ja     3f50 <sgx_read_rand+0xb0>
    3f24:	48 39 d5             	cmp    %rdx,%rbp
    3f27:	77 27                	ja     3f50 <sgx_read_rand+0xb0>
    3f29:	0f 1f 80 00 00 00 00 	nopl   0x0(%rax)
    3f30:	48 8b 44 24 08       	mov    0x8(%rsp),%rax
    3f35:	64 48 2b 04 25 28 00 	sub    %fs:0x28,%rax
    3f3c:	00 00 
    3f3e:	75 7b                	jne    3fbb <sgx_read_rand+0x11b>
    3f40:	48 83 c4 18          	add    $0x18,%rsp
    3f44:	44 89 c0             	mov    %r8d,%eax
    3f47:	5b                   	pop    %rbx
    3f48:	5d                   	pop    %rbp
    3f49:	41 5c                	pop    %r12
    3f4b:	41 5d                	pop    %r13
    3f4d:	c3                   	ret    
    3f4e:	66 90                	xchg   %ax,%ax
    3f50:	c7 44 24 04 00 00 00 	movl   $0x0,0x4(%rsp)
    3f57:	00 
    3f58:	4c 8d 6c 24 04       	lea    0x4(%rsp),%r13
    3f5d:	4c 89 ef             	mov    %r13,%rdi
    3f60:	e8 b8 fd 02 00       	call   33d1d <do_rdrand>
    3f65:	85 c0                	test   %eax,%eax
    3f67:	74 3f                	je     3fa8 <sgx_read_rand+0x108>
    3f69:	41 bc 04 00 00 00    	mov    $0x4,%r12d
    3f6f:	48 89 ef             	mov    %rbp,%rdi
    3f72:	4c 89 ee             	mov    %r13,%rsi
    3f75:	4c 39 e3             	cmp    %r12,%rbx
    3f78:	4c 0f 46 e3          	cmovbe %rbx,%r12
    3f7c:	4c 89 e2             	mov    %r12,%rdx
    3f7f:	4c 01 e5             	add    %r12,%rbp
    3f82:	e8 99 a5 00 00       	call   e520 <memcpy>
    3f87:	4c 29 e3             	sub    %r12,%rbx
    3f8a:	75 d1                	jne    3f5d <sgx_read_rand+0xbd>
    3f8c:	b9 04 00 00 00       	mov    $0x4,%ecx
    3f91:	31 d2                	xor    %edx,%edx
    3f93:	be 04 00 00 00       	mov    $0x4,%esi
    3f98:	4c 89 ef             	mov    %r13,%rdi
    3f9b:	e8 d0 a7 00 00       	call   e770 <memset_s>
    3fa0:	45 31 c0             	xor    %r8d,%r8d
    3fa3:	eb 8b                	jmp    3f30 <sgx_read_rand+0x90>
    3fa5:	0f 1f 00             	nopl   (%rax)
    3fa8:	41 b8 01 00 00 00    	mov    $0x1,%r8d
    3fae:	eb 80                	jmp    3f30 <sgx_read_rand+0x90>
    3fb0:	41 b8 02 00 00 00    	mov    $0x2,%r8d
    3fb6:	e9 75 ff ff ff       	jmp    3f30 <sgx_read_rand+0x90>
    3fbb:	e8 90 a8 00 00       	call   e850 <__stack_chk_fail>

0000000000003fc0 <check_static_stack_canary>:
    3fc0:	f3 0f 1e fa          	endbr64 
    3fc4:	48 8d 05 25 7d 03 00 	lea    0x37d25(%rip),%rax        # 3bcf0 <__intel_security_cookie>
    3fcb:	48 8b 00             	mov    (%rax),%rax
    3fce:	48 39 87 08 fc fe ff 	cmp    %rax,-0x103f8(%rdi)
    3fd5:	0f 95 c0             	setne  %al
    3fd8:	0f b6 c0             	movzbl %al,%eax
    3fdb:	f7 d8                	neg    %eax
    3fdd:	c3                   	ret    
    3fde:	66 90                	xchg   %ax,%ax

0000000000003fe0 <sgx_rdpkru>:
    3fe0:	f3 0f 1e fa          	endbr64 
    3fe4:	53                   	push   %rbx
    3fe5:	48 89 fb             	mov    %rdi,%rbx
    3fe8:	e8 83 18 00 00       	call   5870 <is_pkru_enabled>
    3fed:	41 89 c0             	mov    %eax,%r8d
    3ff0:	31 c0                	xor    %eax,%eax
    3ff2:	45 84 c0             	test   %r8b,%r8b
    3ff5:	74 0c                	je     4003 <sgx_rdpkru+0x23>
    3ff7:	89 c1                	mov    %eax,%ecx
    3ff9:	0f 01 ee             	rdpkru 
    3ffc:	89 03                	mov    %eax,(%rbx)
    3ffe:	b8 01 00 00 00       	mov    $0x1,%eax
    4003:	5b                   	pop    %rbx
    4004:	c3                   	ret    
    4005:	66 2e 0f 1f 84 00 00 	cs nopw 0x0(%rax,%rax,1)
    400c:	00 00 00 
    400f:	90                   	nop

0000000000004010 <sgx_wrpkru>:
    4010:	f3 0f 1e fa          	endbr64 
    4014:	53                   	push   %rbx
    4015:	89 fb                	mov    %edi,%ebx
    4017:	e8 54 18 00 00       	call   5870 <is_pkru_enabled>
    401c:	45 31 c0             	xor    %r8d,%r8d
    401f:	84 c0                	test   %al,%al
    4021:	74 11                	je     4034 <sgx_wrpkru+0x24>
    4023:	89 d8                	mov    %ebx,%eax
    4025:	44 89 c1             	mov    %r8d,%ecx
    4028:	44 89 c2             	mov    %r8d,%edx
    402b:	0f 01 ef             	wrpkru 
    402e:	41 b8 01 00 00 00    	mov    $0x1,%r8d
    4034:	44 89 c0             	mov    %r8d,%eax
    4037:	5b                   	pop    %rbx
    4038:	c3                   	ret    
    4039:	0f 1f 80 00 00 00 00 	nopl   0x0(%rax)

0000000000004040 <_ZL25check_dynamic_entry_rangePvmtmP24dynamic_flags_attributes.constprop.0>:
    4040:	41 57                	push   %r15
    4042:	31 c0                	xor    %eax,%eax
    4044:	49 89 cf             	mov    %rcx,%r15
    4047:	41 56                	push   %r14
    4049:	49 89 fe             	mov    %rdi,%r14
    404c:	41 55                	push   %r13
    404e:	41 54                	push   %r12
    4050:	49 89 d4             	mov    %rdx,%r12
    4053:	55                   	push   %rbp
    4054:	53                   	push   %rbx
    4055:	48 83 ec 08          	sub    $0x8,%rsp
    4059:	48 8d 2d a0 b4 03 00 	lea    0x3b4a0(%rip),%rbp        # 3f500 <g_global_data>
    4060:	8b 95 58 01 00 00    	mov    0x158(%rbp),%edx
    4066:	85 d2                	test   %edx,%edx
    4068:	75 17                	jne    4081 <_ZL25check_dynamic_entry_rangePvmtmP24dynamic_flags_attributes.constprop.0+0x41>
    406a:	e9 91 00 00 00       	jmp    4100 <_ZL25check_dynamic_entry_rangePvmtmP24dynamic_flags_attributes.constprop.0+0xc0>
    406f:	90                   	nop
    4070:	8b 95 58 01 00 00    	mov    0x158(%rbp),%edx
    4076:	83 c0 01             	add    $0x1,%eax
    4079:	39 d0                	cmp    %edx,%eax
    407b:	0f 83 7f 00 00 00    	jae    4100 <_ZL25check_dynamic_entry_rangePvmtmP24dynamic_flags_attributes.constprop.0+0xc0>
    4081:	41 89 c5             	mov    %eax,%r13d
    4084:	49 8d 5d 0b          	lea    0xb(%r13),%rbx
    4088:	48 c1 e3 05          	shl    $0x5,%rbx
    408c:	48 01 eb             	add    %rbp,%rbx
    408f:	0f b7 13             	movzwl (%rbx),%edx
    4092:	66 39 d6             	cmp    %dx,%si
    4095:	75 d9                	jne    4070 <_ZL25check_dynamic_entry_rangePvmtmP24dynamic_flags_attributes.constprop.0+0x30>
    4097:	83 c0 0b             	add    $0xb,%eax
    409a:	48 c1 e0 05          	shl    $0x5,%rax
    409e:	48 01 e8             	add    %rbp,%rax
    40a1:	74 5d                	je     4100 <_ZL25check_dynamic_entry_rangePvmtmP24dynamic_flags_attributes.constprop.0+0xc0>
    40a3:	e8 59 f8 02 00       	call   33901 <get_enclave_base>
    40a8:	48 8b 53 08          	mov    0x8(%rbx),%rdx
    40ac:	4c 01 e2             	add    %r12,%rdx
    40af:	48 01 d0             	add    %rdx,%rax
    40b2:	8b 53 04             	mov    0x4(%rbx),%edx
    40b5:	4c 39 f0             	cmp    %r14,%rax
    40b8:	77 46                	ja     4100 <_ZL25check_dynamic_entry_rangePvmtmP24dynamic_flags_attributes.constprop.0+0xc0>
    40ba:	48 c1 e2 0c          	shl    $0xc,%rdx
    40be:	49 81 c6 00 10 00 00 	add    $0x1000,%r14
    40c5:	48 01 c2             	add    %rax,%rdx
    40c8:	49 39 d6             	cmp    %rdx,%r14
    40cb:	77 33                	ja     4100 <_ZL25check_dynamic_entry_rangePvmtmP24dynamic_flags_attributes.constprop.0+0xc0>
    40cd:	31 c0                	xor    %eax,%eax
    40cf:	4d 85 ff             	test   %r15,%r15
    40d2:	74 1a                	je     40ee <_ZL25check_dynamic_entry_rangePvmtmP24dynamic_flags_attributes.constprop.0+0xae>
    40d4:	49 c1 e5 05          	shl    $0x5,%r13
    40d8:	4c 01 ed             	add    %r13,%rbp
    40db:	48 8b 95 78 01 00 00 	mov    0x178(%rbp),%rdx
    40e2:	49 89 17             	mov    %rdx,(%r15)
    40e5:	0f b7 53 02          	movzwl 0x2(%rbx),%edx
    40e9:	66 41 89 57 08       	mov    %dx,0x8(%r15)
    40ee:	48 83 c4 08          	add    $0x8,%rsp
    40f2:	5b                   	pop    %rbx
    40f3:	5d                   	pop    %rbp
    40f4:	41 5c                	pop    %r12
    40f6:	41 5d                	pop    %r13
    40f8:	41 5e                	pop    %r14
    40fa:	41 5f                	pop    %r15
    40fc:	c3                   	ret    
    40fd:	0f 1f 00             	nopl   (%rax)
    4100:	48 83 c4 08          	add    $0x8,%rsp
    4104:	b8 ff ff ff ff       	mov    $0xffffffff,%eax
    4109:	5b                   	pop    %rbx
    410a:	5d                   	pop    %rbp
    410b:	41 5c                	pop    %r12
    410d:	41 5d                	pop    %r13
    410f:	41 5e                	pop    %r14
    4111:	41 5f                	pop    %r15
    4113:	c3                   	ret    
    4114:	66 2e 0f 1f 84 00 00 	cs nopw 0x0(%rax,%rax,1)
    411b:	00 00 00 
    411e:	66 90                	xchg   %ax,%ax

0000000000004120 <_ZL19check_dynamic_rangePvmPmP24dynamic_flags_attributes.part.0.constprop.0>:
    4120:	41 57                	push   %r15
    4122:	48 89 d1             	mov    %rdx,%rcx
    4125:	49 89 d7             	mov    %rdx,%r15
    4128:	31 d2                	xor    %edx,%edx
    412a:	41 56                	push   %r14
    412c:	41 55                	push   %r13
    412e:	41 54                	push   %r12
    4130:	55                   	push   %rbp
    4131:	48 89 fd             	mov    %rdi,%rbp
    4134:	53                   	push   %rbx
    4135:	48 83 ec 18          	sub    $0x18,%rsp
    4139:	48 89 74 24 08       	mov    %rsi,0x8(%rsp)
    413e:	be 07 00 00 00       	mov    $0x7,%esi
    4143:	e8 f8 fe ff ff       	call   4040 <_ZL25check_dynamic_entry_rangePvmtmP24dynamic_flags_attributes.constprop.0>
    4148:	85 c0                	test   %eax,%eax
    414a:	75 14                	jne    4160 <_ZL19check_dynamic_rangePvmPmP24dynamic_flags_attributes.part.0.constprop.0+0x40>
    414c:	31 c0                	xor    %eax,%eax
    414e:	48 83 c4 18          	add    $0x18,%rsp
    4152:	5b                   	pop    %rbx
    4153:	5d                   	pop    %rbp
    4154:	41 5c                	pop    %r12
    4156:	41 5d                	pop    %r13
    4158:	41 5e                	pop    %r14
    415a:	41 5f                	pop    %r15
    415c:	c3                   	ret    
    415d:	0f 1f 00             	nopl   (%rax)
    4160:	48 8d 15 e1 7b 03 00 	lea    0x37be1(%rip),%rdx        # 3bd48 <rsrv_mem_size>
    4167:	48 8d 05 e2 7b 03 00 	lea    0x37be2(%rip),%rax        # 3bd50 <rsrv_mem_base>
    416e:	48 8b 0a             	mov    (%rdx),%rcx
    4171:	48 8d 15 c8 7b 03 00 	lea    0x37bc8(%rip),%rdx        # 3bd40 <rsrv_mem_min_size>
    4178:	48 8b 00             	mov    (%rax),%rax
    417b:	48 8b 32             	mov    (%rdx),%rsi
    417e:	48 01 c6             	add    %rax,%rsi
    4181:	48 39 ee             	cmp    %rbp,%rsi
    4184:	77 27                	ja     41ad <_ZL19check_dynamic_rangePvmPmP24dynamic_flags_attributes.part.0.constprop.0+0x8d>
    4186:	48 8d 95 00 10 00 00 	lea    0x1000(%rbp),%rdx
    418d:	48 01 c8             	add    %rcx,%rax
    4190:	48 39 c2             	cmp    %rax,%rdx
    4193:	77 18                	ja     41ad <_ZL19check_dynamic_rangePvmPmP24dynamic_flags_attributes.part.0.constprop.0+0x8d>
    4195:	4d 85 ff             	test   %r15,%r15
    4198:	74 b2                	je     414c <_ZL19check_dynamic_rangePvmPmP24dynamic_flags_attributes.part.0.constprop.0+0x2c>
    419a:	b8 08 00 00 00       	mov    $0x8,%eax
    419f:	49 c7 07 03 02 00 00 	movq   $0x203,(%r15)
    41a6:	66 41 89 47 08       	mov    %ax,0x8(%r15)
    41ab:	eb 9f                	jmp    414c <_ZL19check_dynamic_rangePvmPmP24dynamic_flags_attributes.part.0.constprop.0+0x2c>
    41ad:	48 8d 15 4c b3 03 00 	lea    0x3b34c(%rip),%rdx        # 3f500 <g_global_data>
    41b4:	31 c0                	xor    %eax,%eax
    41b6:	8b 8a 58 01 00 00    	mov    0x158(%rdx),%ecx
    41bc:	85 c9                	test   %ecx,%ecx
    41be:	74 24                	je     41e4 <_ZL19check_dynamic_rangePvmPmP24dynamic_flags_attributes.part.0.constprop.0+0xc4>
    41c0:	89 c3                	mov    %eax,%ebx
    41c2:	48 83 c3 0b          	add    $0xb,%rbx
    41c6:	48 c1 e3 05          	shl    $0x5,%rbx
    41ca:	48 01 d3             	add    %rdx,%rbx
    41cd:	0f b7 0b             	movzwl (%rbx),%ecx
    41d0:	66 81 f9 13 10       	cmp    $0x1013,%cx
    41d5:	74 49                	je     4220 <_ZL19check_dynamic_rangePvmPmP24dynamic_flags_attributes.part.0.constprop.0+0x100>
    41d7:	8b 8a 58 01 00 00    	mov    0x158(%rdx),%ecx
    41dd:	83 c0 01             	add    $0x1,%eax
    41e0:	39 c8                	cmp    %ecx,%eax
    41e2:	72 dc                	jb     41c0 <_ZL19check_dynamic_rangePvmPmP24dynamic_flags_attributes.part.0.constprop.0+0xa0>
    41e4:	bb 0e 00 00 00       	mov    $0xe,%ebx
    41e9:	31 d2                	xor    %edx,%edx
    41eb:	4c 89 f9             	mov    %r15,%rcx
    41ee:	89 de                	mov    %ebx,%esi
    41f0:	48 89 ef             	mov    %rbp,%rdi
    41f3:	e8 48 fe ff ff       	call   4040 <_ZL25check_dynamic_entry_rangePvmtmP24dynamic_flags_attributes.constprop.0>
    41f8:	85 c0                	test   %eax,%eax
    41fa:	0f 84 af 00 00 00    	je     42af <_ZL19check_dynamic_rangePvmPmP24dynamic_flags_attributes.part.0.constprop.0+0x18f>
    4200:	83 c3 01             	add    $0x1,%ebx
    4203:	83 fb 13             	cmp    $0x13,%ebx
    4206:	75 e1                	jne    41e9 <_ZL19check_dynamic_rangePvmPmP24dynamic_flags_attributes.part.0.constprop.0+0xc9>
    4208:	48 83 c4 18          	add    $0x18,%rsp
    420c:	b8 ff ff ff ff       	mov    $0xffffffff,%eax
    4211:	5b                   	pop    %rbx
    4212:	5d                   	pop    %rbp
    4213:	41 5c                	pop    %r12
    4215:	41 5d                	pop    %r13
    4217:	41 5e                	pop    %r14
    4219:	41 5f                	pop    %r15
    421b:	c3                   	ret    
    421c:	0f 1f 40 00          	nopl   0x0(%rax)
    4220:	83 c0 0b             	add    $0xb,%eax
    4223:	48 c1 e0 05          	shl    $0x5,%rax
    4227:	48 01 c2             	add    %rax,%rdx
    422a:	74 b8                	je     41e4 <_ZL19check_dynamic_rangePvmPmP24dynamic_flags_attributes.part.0.constprop.0+0xc4>
    422c:	41 bd 0e 00 00 00    	mov    $0xe,%r13d
    4232:	8b 43 04             	mov    0x4(%rbx),%eax
    4235:	45 31 f6             	xor    %r14d,%r14d
    4238:	83 f8 ff             	cmp    $0xffffffff,%eax
    423b:	75 12                	jne    424f <_ZL19check_dynamic_rangePvmPmP24dynamic_flags_attributes.part.0.constprop.0+0x12f>
    423d:	eb 61                	jmp    42a0 <_ZL19check_dynamic_rangePvmPmP24dynamic_flags_attributes.part.0.constprop.0+0x180>
    423f:	90                   	nop
    4240:	8b 43 04             	mov    0x4(%rbx),%eax
    4243:	41 83 c6 01          	add    $0x1,%r14d
    4247:	83 c0 01             	add    $0x1,%eax
    424a:	41 39 c6             	cmp    %eax,%r14d
    424d:	73 51                	jae    42a0 <_ZL19check_dynamic_rangePvmPmP24dynamic_flags_attributes.part.0.constprop.0+0x180>
    424f:	48 8b 53 08          	mov    0x8(%rbx),%rdx
    4253:	45 89 f4             	mov    %r14d,%r12d
    4256:	48 8d 43 08          	lea    0x8(%rbx),%rax
    425a:	4c 89 f9             	mov    %r15,%rcx
    425d:	44 89 ee             	mov    %r13d,%esi
    4260:	48 89 ef             	mov    %rbp,%rdi
    4263:	48 89 04 24          	mov    %rax,(%rsp)
    4267:	49 0f af d4          	imul   %r12,%rdx
    426b:	e8 d0 fd ff ff       	call   4040 <_ZL25check_dynamic_entry_rangePvmtmP24dynamic_flags_attributes.constprop.0>
    4270:	85 c0                	test   %eax,%eax
    4272:	75 cc                	jne    4240 <_ZL19check_dynamic_rangePvmPmP24dynamic_flags_attributes.part.0.constprop.0+0x120>
    4274:	48 8b 7c 24 08       	mov    0x8(%rsp),%rdi
    4279:	48 85 ff             	test   %rdi,%rdi
    427c:	0f 84 ca fe ff ff    	je     414c <_ZL19check_dynamic_rangePvmPmP24dynamic_flags_attributes.part.0.constprop.0+0x2c>
    4282:	48 8b 34 24          	mov    (%rsp),%rsi
    4286:	48 8b 16             	mov    (%rsi),%rdx
    4289:	4c 0f af e2          	imul   %rdx,%r12
    428d:	4c 89 27             	mov    %r12,(%rdi)
    4290:	48 83 c4 18          	add    $0x18,%rsp
    4294:	5b                   	pop    %rbx
    4295:	5d                   	pop    %rbp
    4296:	41 5c                	pop    %r12
    4298:	41 5d                	pop    %r13
    429a:	41 5e                	pop    %r14
    429c:	41 5f                	pop    %r15
    429e:	c3                   	ret    
    429f:	90                   	nop
    42a0:	41 83 c5 01          	add    $0x1,%r13d
    42a4:	41 83 fd 13          	cmp    $0x13,%r13d
    42a8:	75 88                	jne    4232 <_ZL19check_dynamic_rangePvmPmP24dynamic_flags_attributes.part.0.constprop.0+0x112>
    42aa:	e9 59 ff ff ff       	jmp    4208 <_ZL19check_dynamic_rangePvmPmP24dynamic_flags_attributes.part.0.constprop.0+0xe8>
    42af:	48 8b 7c 24 08       	mov    0x8(%rsp),%rdi
    42b4:	48 85 ff             	test   %rdi,%rdi
    42b7:	0f 84 8f fe ff ff    	je     414c <_ZL19check_dynamic_rangePvmPmP24dynamic_flags_attributes.part.0.constprop.0+0x2c>
    42bd:	48 c7 07 00 00 00 00 	movq   $0x0,(%rdi)
    42c4:	e9 85 fe ff ff       	jmp    414e <_ZL19check_dynamic_rangePvmPmP24dynamic_flags_attributes.part.0.constprop.0+0x2e>
    42c9:	0f 1f 80 00 00 00 00 	nopl   0x0(%rax)

00000000000042d0 <_Z24get_dynamic_layout_by_idt>:
    42d0:	f3 0f 1e fa          	endbr64 
    42d4:	48 8d 05 25 b2 03 00 	lea    0x3b225(%rip),%rax        # 3f500 <g_global_data>
    42db:	8b 90 58 01 00 00    	mov    0x158(%rax),%edx
    42e1:	85 d2                	test   %edx,%edx
    42e3:	74 3b                	je     4320 <_Z24get_dynamic_layout_by_idt+0x50>
    42e5:	31 c9                	xor    %ecx,%ecx
    42e7:	eb 14                	jmp    42fd <_Z24get_dynamic_layout_by_idt+0x2d>
    42e9:	0f 1f 80 00 00 00 00 	nopl   0x0(%rax)
    42f0:	8b 90 58 01 00 00    	mov    0x158(%rax),%edx
    42f6:	83 c1 01             	add    $0x1,%ecx
    42f9:	39 ca                	cmp    %ecx,%edx
    42fb:	76 23                	jbe    4320 <_Z24get_dynamic_layout_by_idt+0x50>
    42fd:	89 ca                	mov    %ecx,%edx
    42ff:	48 83 c2 0b          	add    $0xb,%rdx
    4303:	48 c1 e2 05          	shl    $0x5,%rdx
    4307:	48 01 c2             	add    %rax,%rdx
    430a:	0f b7 12             	movzwl (%rdx),%edx
    430d:	66 39 fa             	cmp    %di,%dx
    4310:	75 de                	jne    42f0 <_Z24get_dynamic_layout_by_idt+0x20>
    4312:	8d 51 0b             	lea    0xb(%rcx),%edx
    4315:	48 c1 e2 05          	shl    $0x5,%rdx
    4319:	48 01 d0             	add    %rdx,%rax
    431c:	c3                   	ret    
    431d:	0f 1f 00             	nopl   (%rax)
    4320:	31 c0                	xor    %eax,%eax
    4322:	c3                   	ret    
    4323:	66 2e 0f 1f 84 00 00 	cs nopw 0x0(%rax,%rax,1)
    432a:	00 00 00 
    432d:	0f 1f 00             	nopl   (%rax)

0000000000004330 <is_dynamic_thread>:
    4330:	f3 0f 1e fa          	endbr64 
    4334:	41 54                	push   %r12
    4336:	55                   	push   %rbp
    4337:	53                   	push   %rbx
    4338:	48 83 ec 20          	sub    $0x20,%rsp
    433c:	64 48 8b 04 25 28 00 	mov    %fs:0x28,%rax
    4343:	00 00 
    4345:	48 89 44 24 18       	mov    %rax,0x18(%rsp)
    434a:	31 c0                	xor    %eax,%eax
    434c:	48 85 ff             	test   %rdi,%rdi
    434f:	74 40                	je     4391 <is_dynamic_thread+0x61>
    4351:	48 89 fd             	mov    %rdi,%rbp
    4354:	48 81 ff ff ef ff ff 	cmp    $0xffffffffffffefff,%rdi
    435b:	77 34                	ja     4391 <is_dynamic_thread+0x61>
    435d:	e8 6e 11 00 00       	call   54d0 <get_heap_base>
    4362:	48 89 c3             	mov    %rax,%rbx
    4365:	e8 f6 11 00 00       	call   5560 <get_heap_min_size>
    436a:	48 01 c3             	add    %rax,%rbx
    436d:	e8 7e 11 00 00       	call   54f0 <get_heap_size>
    4372:	49 89 c4             	mov    %rax,%r12
    4375:	e8 e6 11 00 00       	call   5560 <get_heap_min_size>
    437a:	49 29 c4             	sub    %rax,%r12
    437d:	48 39 dd             	cmp    %rbx,%rbp
    4380:	72 2e                	jb     43b0 <is_dynamic_thread+0x80>
    4382:	48 8d 85 00 10 00 00 	lea    0x1000(%rbp),%rax
    4389:	4c 01 e3             	add    %r12,%rbx
    438c:	48 39 d8             	cmp    %rbx,%rax
    438f:	77 1f                	ja     43b0 <is_dynamic_thread+0x80>
    4391:	31 c0                	xor    %eax,%eax
    4393:	48 8b 54 24 18       	mov    0x18(%rsp),%rdx
    4398:	64 48 2b 14 25 28 00 	sub    %fs:0x28,%rdx
    439f:	00 00 
    43a1:	75 2d                	jne    43d0 <is_dynamic_thread+0xa0>
    43a3:	48 83 c4 20          	add    $0x20,%rsp
    43a7:	5b                   	pop    %rbx
    43a8:	5d                   	pop    %rbp
    43a9:	41 5c                	pop    %r12
    43ab:	c3                   	ret    
    43ac:	0f 1f 40 00          	nopl   0x0(%rax)
    43b0:	31 f6                	xor    %esi,%esi
    43b2:	48 89 e2             	mov    %rsp,%rdx
    43b5:	48 89 ef             	mov    %rbp,%rdi
    43b8:	e8 63 fd ff ff       	call   4120 <_ZL19check_dynamic_rangePvmPmP24dynamic_flags_attributes.part.0.constprop.0>
    43bd:	85 c0                	test   %eax,%eax
    43bf:	75 d0                	jne    4391 <is_dynamic_thread+0x61>
    43c1:	31 c0                	xor    %eax,%eax
    43c3:	48 81 3c 24 00 01 00 	cmpq   $0x100,(%rsp)
    43ca:	00 
    43cb:	0f 94 c0             	sete   %al
    43ce:	eb c3                	jmp    4393 <is_dynamic_thread+0x63>
    43d0:	e8 7b a4 00 00       	call   e850 <__stack_chk_fail>
    43d5:	66 2e 0f 1f 84 00 00 	cs nopw 0x0(%rax,%rax,1)
    43dc:	00 00 00 
    43df:	90                   	nop

00000000000043e0 <is_dynamic_thread_exist>:
    43e0:	f3 0f 1e fa          	endbr64 
    43e4:	48 8d 05 29 79 03 00 	lea    0x37929(%rip),%rax        # 3bd14 <EDMM_supported>
    43eb:	8b 00                	mov    (%rax),%eax
    43ed:	85 c0                	test   %eax,%eax
    43ef:	74 59                	je     444a <is_dynamic_thread_exist+0x6a>
    43f1:	48 8d 0d 08 b1 03 00 	lea    0x3b108(%rip),%rcx        # 3f500 <g_global_data>
    43f8:	8b 81 58 01 00 00    	mov    0x158(%rcx),%eax
    43fe:	85 c0                	test   %eax,%eax
    4400:	74 46                	je     4448 <is_dynamic_thread_exist+0x68>
    4402:	31 d2                	xor    %edx,%edx
    4404:	eb 17                	jmp    441d <is_dynamic_thread_exist+0x3d>
    4406:	66 2e 0f 1f 84 00 00 	cs nopw 0x0(%rax,%rax,1)
    440d:	00 00 00 
    4410:	8b 81 58 01 00 00    	mov    0x158(%rcx),%eax
    4416:	83 c2 01             	add    $0x1,%edx
    4419:	39 c2                	cmp    %eax,%edx
    441b:	73 2b                	jae    4448 <is_dynamic_thread_exist+0x68>
    441d:	89 d0                	mov    %edx,%eax
    441f:	48 83 c0 0b          	add    $0xb,%rax
    4423:	48 c1 e0 05          	shl    $0x5,%rax
    4427:	48 01 c8             	add    %rcx,%rax
    442a:	0f b7 00             	movzwl (%rax),%eax
    442d:	66 83 f8 12          	cmp    $0x12,%ax
    4431:	75 dd                	jne    4410 <is_dynamic_thread_exist+0x30>
    4433:	8d 42 0b             	lea    0xb(%rdx),%eax
    4436:	48 c1 e0 05          	shl    $0x5,%rax
    443a:	48 01 c1             	add    %rax,%rcx
    443d:	0f 95 c0             	setne  %al
    4440:	0f b6 c0             	movzbl %al,%eax
    4443:	c3                   	ret    
    4444:	0f 1f 40 00          	nopl   0x0(%rax)
    4448:	31 c0                	xor    %eax,%eax
    444a:	c3                   	ret    
    444b:	0f 1f 44 00 00       	nopl   0x0(%rax,%rax,1)

0000000000004450 <get_dynamic_stack_max_page>:
    4450:	f3 0f 1e fa          	endbr64 
    4454:	48 8d 0d a5 b0 03 00 	lea    0x3b0a5(%rip),%rcx        # 3f500 <g_global_data>
    445b:	8b 81 58 01 00 00    	mov    0x158(%rcx),%eax
    4461:	85 c0                	test   %eax,%eax
    4463:	74 45                	je     44aa <get_dynamic_stack_max_page+0x5a>
    4465:	31 d2                	xor    %edx,%edx
    4467:	eb 14                	jmp    447d <get_dynamic_stack_max_page+0x2d>
    4469:	0f 1f 80 00 00 00 00 	nopl   0x0(%rax)
    4470:	8b 81 58 01 00 00    	mov    0x158(%rcx),%eax
    4476:	83 c2 01             	add    $0x1,%edx
    4479:	39 c2                	cmp    %eax,%edx
    447b:	73 2b                	jae    44a8 <get_dynamic_stack_max_page+0x58>
    447d:	89 d0                	mov    %edx,%eax
    447f:	48 83 c0 0b          	add    $0xb,%rax
    4483:	48 c1 e0 05          	shl    $0x5,%rax
    4487:	48 01 c8             	add    %rcx,%rax
    448a:	0f b7 30             	movzwl (%rax),%esi
    448d:	66 83 fe 07          	cmp    $0x7,%si
    4491:	75 dd                	jne    4470 <get_dynamic_stack_max_page+0x20>
    4493:	83 c2 0b             	add    $0xb,%edx
    4496:	48 c1 e2 05          	shl    $0x5,%rdx
    449a:	48 01 d1             	add    %rdx,%rcx
    449d:	74 09                	je     44a8 <get_dynamic_stack_max_page+0x58>
    449f:	8b 40 04             	mov    0x4(%rax),%eax
    44a2:	c3                   	ret    
    44a3:	0f 1f 44 00 00       	nopl   0x0(%rax,%rax,1)
    44a8:	31 c0                	xor    %eax,%eax
    44aa:	c3                   	ret    
    44ab:	0f 1f 44 00 00       	nopl   0x0(%rax,%rax,1)

00000000000044b0 <do_add_thread>:
    44b0:	f3 0f 1e fa          	endbr64 
    44b4:	41 56                	push   %r14
    44b6:	41 55                	push   %r13
    44b8:	41 54                	push   %r12
    44ba:	49 89 fc             	mov    %rdi,%r12
    44bd:	55                   	push   %rbp
    44be:	53                   	push   %rbx
    44bf:	48 83 ec 10          	sub    $0x10,%rsp
    44c3:	64 48 8b 04 25 28 00 	mov    %fs:0x28,%rax
    44ca:	00 00 
    44cc:	48 89 44 24 08       	mov    %rax,0x8(%rsp)
    44d1:	31 c0                	xor    %eax,%eax
    44d3:	48 c7 04 24 00 00 00 	movq   $0x0,(%rsp)
    44da:	00 
    44db:	e8 21 f4 02 00       	call   33901 <get_enclave_base>
    44e0:	49 81 fc ff ef ff ff 	cmp    $0xffffffffffffefff,%r12
    44e7:	0f 87 9f 00 00 00    	ja     458c <do_add_thread+0xdc>
    44ed:	48 89 c3             	mov    %rax,%rbx
    44f0:	e8 db 0f 00 00       	call   54d0 <get_heap_base>
    44f5:	48 89 c5             	mov    %rax,%rbp
    44f8:	e8 63 10 00 00       	call   5560 <get_heap_min_size>
    44fd:	48 01 c5             	add    %rax,%rbp
    4500:	e8 eb 0f 00 00       	call   54f0 <get_heap_size>
    4505:	49 89 c5             	mov    %rax,%r13
    4508:	e8 53 10 00 00       	call   5560 <get_heap_min_size>
    450d:	49 29 c5             	sub    %rax,%r13
    4510:	49 39 ec             	cmp    %rbp,%r12
    4513:	0f 82 53 01 00 00    	jb     466c <do_add_thread+0x1bc>
    4519:	49 8d 84 24 00 10 00 	lea    0x1000(%r12),%rax
    4520:	00 
    4521:	4c 01 ed             	add    %r13,%rbp
    4524:	48 39 e8             	cmp    %rbp,%rax
    4527:	0f 87 3f 01 00 00    	ja     466c <do_add_thread+0x1bc>
    452d:	48 8d 2d cc af 03 00 	lea    0x3afcc(%rip),%rbp        # 3f500 <g_global_data>
    4534:	31 d2                	xor    %edx,%edx
    4536:	8b 85 58 01 00 00    	mov    0x158(%rbp),%eax
    453c:	85 c0                	test   %eax,%eax
    453e:	75 15                	jne    4555 <do_add_thread+0xa5>
    4540:	eb 4a                	jmp    458c <do_add_thread+0xdc>
    4542:	66 0f 1f 44 00 00    	nopw   0x0(%rax,%rax,1)
    4548:	8b 85 58 01 00 00    	mov    0x158(%rbp),%eax
    454e:	83 c2 01             	add    $0x1,%edx
    4551:	39 c2                	cmp    %eax,%edx
    4553:	73 37                	jae    458c <do_add_thread+0xdc>
    4555:	89 d0                	mov    %edx,%eax
    4557:	48 83 c0 0b          	add    $0xb,%rax
    455b:	48 c1 e0 05          	shl    $0x5,%rax
    455f:	48 01 e8             	add    %rbp,%rax
    4562:	44 0f b7 28          	movzwl (%rax),%r13d
    4566:	66 41 83 fd 0e       	cmp    $0xe,%r13w
    456b:	75 db                	jne    4548 <do_add_thread+0x98>
    456d:	83 c2 0b             	add    $0xb,%edx
    4570:	48 c1 e2 05          	shl    $0x5,%rdx
    4574:	48 01 ea             	add    %rbp,%rdx
    4577:	74 13                	je     458c <do_add_thread+0xdc>
    4579:	4c 8b 34 24          	mov    (%rsp),%r14
    457d:	48 8b 40 08          	mov    0x8(%rax),%rax
    4581:	49 01 de             	add    %rbx,%r14
    4584:	4c 01 f0             	add    %r14,%rax
    4587:	4c 39 e0             	cmp    %r12,%rax
    458a:	74 50                	je     45dc <do_add_thread+0x12c>
    458c:	b8 01 00 00 00       	mov    $0x1,%eax
    4591:	48 8b 54 24 08       	mov    0x8(%rsp),%rdx
    4596:	64 48 2b 14 25 28 00 	sub    %fs:0x28,%rdx
    459d:	00 00 
    459f:	0f 85 0b 01 00 00    	jne    46b0 <do_add_thread+0x200>
    45a5:	48 83 c4 10          	add    $0x10,%rsp
    45a9:	5b                   	pop    %rbx
    45aa:	5d                   	pop    %rbp
    45ab:	41 5c                	pop    %r12
    45ad:	41 5d                	pop    %r13
    45af:	41 5e                	pop    %r14
    45b1:	c3                   	ret    
    45b2:	66 0f 1f 44 00 00    	nopw   0x0(%rax,%rax,1)
    45b8:	83 c2 0b             	add    $0xb,%edx
    45bb:	48 c1 e2 05          	shl    $0x5,%rdx
    45bf:	48 01 ea             	add    %rbp,%rdx
    45c2:	74 0d                	je     45d1 <do_add_thread+0x121>
    45c4:	0f b7 50 02          	movzwl 0x2(%rax),%edx
    45c8:	83 e2 20             	and    $0x20,%edx
    45cb:	0f 85 bf 00 00 00    	jne    4690 <do_add_thread+0x1e0>
    45d1:	41 83 c5 01          	add    $0x1,%r13d
    45d5:	66 41 83 fd 13       	cmp    $0x13,%r13w
    45da:	74 3c                	je     4618 <do_add_thread+0x168>
    45dc:	8b 85 58 01 00 00    	mov    0x158(%rbp),%eax
    45e2:	31 d2                	xor    %edx,%edx
    45e4:	85 c0                	test   %eax,%eax
    45e6:	75 15                	jne    45fd <do_add_thread+0x14d>
    45e8:	eb e7                	jmp    45d1 <do_add_thread+0x121>
    45ea:	66 0f 1f 44 00 00    	nopw   0x0(%rax,%rax,1)
    45f0:	8b 85 58 01 00 00    	mov    0x158(%rbp),%eax
    45f6:	83 c2 01             	add    $0x1,%edx
    45f9:	39 c2                	cmp    %eax,%edx
    45fb:	73 d4                	jae    45d1 <do_add_thread+0x121>
    45fd:	89 d0                	mov    %edx,%eax
    45ff:	48 83 c0 0b          	add    $0xb,%rax
    4603:	48 c1 e0 05          	shl    $0x5,%rax
    4607:	48 01 e8             	add    %rbp,%rax
    460a:	0f b7 08             	movzwl (%rax),%ecx
    460d:	66 44 39 e9          	cmp    %r13w,%cx
    4611:	75 dd                	jne    45f0 <do_add_thread+0x140>
    4613:	eb a3                	jmp    45b8 <do_add_thread+0x108>
    4615:	0f 1f 00             	nopl   (%rax)
    4618:	ba 48 00 00 00       	mov    $0x48,%edx
    461d:	48 8d b5 10 01 00 00 	lea    0x110(%rbp),%rsi
    4624:	4c 89 e7             	mov    %r12,%rdi
    4627:	e8 f4 9e 00 00       	call   e520 <memcpy>
    462c:	4c 89 e0             	mov    %r12,%rax
    462f:	ba 00 01 00 00       	mov    $0x100,%edx
    4634:	4c 89 e7             	mov    %r12,%rdi
    4637:	48 29 d8             	sub    %rbx,%rax
    463a:	49 01 44 24 10       	add    %rax,0x10(%r12)
    463f:	4c 89 e0             	mov    %r12,%rax
    4642:	be 00 10 00 00       	mov    $0x1000,%esi
    4647:	48 29 d8             	sub    %rbx,%rax
    464a:	49 01 44 24 30       	add    %rax,0x30(%r12)
    464f:	4c 89 e0             	mov    %r12,%rax
    4652:	48 29 d8             	sub    %rbx,%rax
    4655:	49 01 44 24 38       	add    %rax,0x38(%r12)
    465a:	e8 c1 54 00 00       	call   9b20 <mm_modify_type>
    465f:	85 c0                	test   %eax,%eax
    4661:	0f 95 c0             	setne  %al
    4664:	0f b6 c0             	movzbl %al,%eax
    4667:	e9 25 ff ff ff       	jmp    4591 <do_add_thread+0xe1>
    466c:	31 d2                	xor    %edx,%edx
    466e:	48 89 e6             	mov    %rsp,%rsi
    4671:	4c 89 e7             	mov    %r12,%rdi
    4674:	e8 a7 fa ff ff       	call   4120 <_ZL19check_dynamic_rangePvmPmP24dynamic_flags_attributes.part.0.constprop.0>
    4679:	85 c0                	test   %eax,%eax
    467b:	0f 85 0b ff ff ff    	jne    458c <do_add_thread+0xdc>
    4681:	e9 a7 fe ff ff       	jmp    452d <do_add_thread+0x7d>
    4686:	66 2e 0f 1f 84 00 00 	cs nopw 0x0(%rax,%rax,1)
    468d:	00 00 00 
    4690:	8b 70 04             	mov    0x4(%rax),%esi
    4693:	48 8b 78 08          	mov    0x8(%rax),%rdi
    4697:	48 c1 e6 0c          	shl    $0xc,%rsi
    469b:	4c 01 f7             	add    %r14,%rdi
    469e:	e8 3d 54 00 00       	call   9ae0 <mm_commit>
    46a3:	85 c0                	test   %eax,%eax
    46a5:	0f 84 26 ff ff ff    	je     45d1 <do_add_thread+0x121>
    46ab:	e9 dc fe ff ff       	jmp    458c <do_add_thread+0xdc>
    46b0:	e8 9b a1 00 00       	call   e850 <__stack_chk_fail>
    46b5:	66 2e 0f 1f 84 00 00 	cs nopw 0x0(%rax,%rax,1)
    46bc:	00 00 00 
    46bf:	90                   	nop

00000000000046c0 <sgx_set_ssa_aexnotify>:
    46c0:	f3 0f 1e fa          	endbr64 
    46c4:	55                   	push   %rbp
    46c5:	89 fd                	mov    %edi,%ebp
    46c7:	53                   	push   %rbx
    46c8:	48 83 ec 08          	sub    $0x8,%rsp
    46cc:	e8 7b f2 02 00       	call   3394c <get_thread_data>
    46d1:	48 85 c0             	test   %rax,%rax
    46d4:	74 32                	je     4708 <sgx_set_ssa_aexnotify+0x48>
    46d6:	48 89 c3             	mov    %rax,%rbx
    46d9:	e8 92 e5 02 00       	call   32c70 <sgx_self_report>
    46de:	f6 40 31 04          	testb  $0x4,0x31(%rax)
    46e2:	74 24                	je     4708 <sgx_set_ssa_aexnotify+0x48>
    46e4:	48 8b 53 20          	mov    0x20(%rbx),%rdx
    46e8:	0f b6 82 a7 00 00 00 	movzbl 0xa7(%rdx),%eax
    46ef:	85 ed                	test   %ebp,%ebp
    46f1:	74 25                	je     4718 <sgx_set_ssa_aexnotify+0x58>
    46f3:	83 c8 01             	or     $0x1,%eax
    46f6:	88 82 a7 00 00 00    	mov    %al,0xa7(%rdx)
    46fc:	48 83 c4 08          	add    $0x8,%rsp
    4700:	31 c0                	xor    %eax,%eax
    4702:	5b                   	pop    %rbx
    4703:	5d                   	pop    %rbp
    4704:	c3                   	ret    
    4705:	0f 1f 00             	nopl   (%rax)
    4708:	48 83 c4 08          	add    $0x8,%rsp
    470c:	b8 01 00 00 00       	mov    $0x1,%eax
    4711:	5b                   	pop    %rbx
    4712:	5d                   	pop    %rbp
    4713:	c3                   	ret    
    4714:	0f 1f 40 00          	nopl   0x0(%rax)
    4718:	83 e0 fe             	and    $0xfffffffe,%eax
    471b:	88 82 a7 00 00 00    	mov    %al,0xa7(%rdx)
    4721:	48 83 c4 08          	add    $0x8,%rsp
    4725:	31 c0                	xor    %eax,%eax
    4727:	5b                   	pop    %rbx
    4728:	5d                   	pop    %rbp
    4729:	c3                   	ret    
    472a:	66 0f 1f 44 00 00    	nopw   0x0(%rax,%rax,1)

0000000000004730 <sgx_register_aex_handler>:
    4730:	f3 0f 1e fa          	endbr64 
    4734:	48 85 ff             	test   %rdi,%rdi
    4737:	0f 84 bb 00 00 00    	je     47f8 <sgx_register_aex_handler+0xc8>
    473d:	41 55                	push   %r13
    473f:	b8 02 00 00 00       	mov    $0x2,%eax
    4744:	41 54                	push   %r12
    4746:	55                   	push   %rbp
    4747:	48 89 f5             	mov    %rsi,%rbp
    474a:	53                   	push   %rbx
    474b:	48 83 ec 08          	sub    $0x8,%rsp
    474f:	48 85 f6             	test   %rsi,%rsi
    4752:	74 29                	je     477d <sgx_register_aex_handler+0x4d>
    4754:	48 89 fb             	mov    %rdi,%rbx
    4757:	49 89 d4             	mov    %rdx,%r12
    475a:	e8 71 11 00 00       	call   58d0 <get_ssa_aexnotify>
    475f:	85 c0                	test   %eax,%eax
    4761:	75 2d                	jne    4790 <sgx_register_aex_handler+0x60>
    4763:	e8 e4 f1 02 00       	call   3394c <get_thread_data>
    4768:	48 8b 50 48          	mov    0x48(%rax),%rdx
    476c:	48 89 2b             	mov    %rbp,(%rbx)
    476f:	4c 89 63 08          	mov    %r12,0x8(%rbx)
    4773:	48 89 53 10          	mov    %rdx,0x10(%rbx)
    4777:	48 89 58 48          	mov    %rbx,0x48(%rax)
    477b:	31 c0                	xor    %eax,%eax
    477d:	48 83 c4 08          	add    $0x8,%rsp
    4781:	5b                   	pop    %rbx
    4782:	5d                   	pop    %rbp
    4783:	41 5c                	pop    %r12
    4785:	41 5d                	pop    %r13
    4787:	c3                   	ret    
    4788:	0f 1f 84 00 00 00 00 	nopl   0x0(%rax,%rax,1)
    478f:	00 
    4790:	e8 b7 f1 02 00       	call   3394c <get_thread_data>
    4795:	49 89 c5             	mov    %rax,%r13
    4798:	48 85 c0             	test   %rax,%rax
    479b:	74 16                	je     47b3 <sgx_register_aex_handler+0x83>
    479d:	e8 ce e4 02 00       	call   32c70 <sgx_self_report>
    47a2:	f6 40 31 04          	testb  $0x4,0x31(%rax)
    47a6:	74 0b                	je     47b3 <sgx_register_aex_handler+0x83>
    47a8:	49 8b 45 20          	mov    0x20(%r13),%rax
    47ac:	80 a0 a7 00 00 00 fe 	andb   $0xfe,0xa7(%rax)
    47b3:	e8 94 f1 02 00       	call   3394c <get_thread_data>
    47b8:	48 8b 50 48          	mov    0x48(%rax),%rdx
    47bc:	48 89 2b             	mov    %rbp,(%rbx)
    47bf:	4c 89 63 08          	mov    %r12,0x8(%rbx)
    47c3:	48 89 53 10          	mov    %rdx,0x10(%rbx)
    47c7:	48 89 58 48          	mov    %rbx,0x48(%rax)
    47cb:	e8 7c f1 02 00       	call   3394c <get_thread_data>
    47d0:	48 89 c3             	mov    %rax,%rbx
    47d3:	48 85 c0             	test   %rax,%rax
    47d6:	74 a3                	je     477b <sgx_register_aex_handler+0x4b>
    47d8:	e8 93 e4 02 00       	call   32c70 <sgx_self_report>
    47dd:	f6 40 31 04          	testb  $0x4,0x31(%rax)
    47e1:	74 98                	je     477b <sgx_register_aex_handler+0x4b>
    47e3:	48 8b 43 20          	mov    0x20(%rbx),%rax
    47e7:	80 88 a7 00 00 00 01 	orb    $0x1,0xa7(%rax)
    47ee:	31 c0                	xor    %eax,%eax
    47f0:	eb 8b                	jmp    477d <sgx_register_aex_handler+0x4d>
    47f2:	66 0f 1f 44 00 00    	nopw   0x0(%rax,%rax,1)
    47f8:	b8 02 00 00 00       	mov    $0x2,%eax
    47fd:	c3                   	ret    
    47fe:	66 90                	xchg   %ax,%ax

0000000000004800 <sgx_unregister_aex_handler>:
    4800:	f3 0f 1e fa          	endbr64 
    4804:	41 54                	push   %r12
    4806:	55                   	push   %rbp
    4807:	53                   	push   %rbx
    4808:	48 85 ff             	test   %rdi,%rdi
    480b:	0f 84 df 00 00 00    	je     48f0 <sgx_unregister_aex_handler+0xf0>
    4811:	48 89 fb             	mov    %rdi,%rbx
    4814:	e8 b7 10 00 00       	call   58d0 <get_ssa_aexnotify>
    4819:	89 c5                	mov    %eax,%ebp
    481b:	85 c0                	test   %eax,%eax
    481d:	75 51                	jne    4870 <sgx_unregister_aex_handler+0x70>
    481f:	e8 28 f1 02 00       	call   3394c <get_thread_data>
    4824:	41 bc 01 00 00 00    	mov    $0x1,%r12d
    482a:	48 8b 50 48          	mov    0x48(%rax),%rdx
    482e:	48 85 d2             	test   %rdx,%rdx
    4831:	74 2f                	je     4862 <sgx_unregister_aex_handler+0x62>
    4833:	31 f6                	xor    %esi,%esi
    4835:	eb 0c                	jmp    4843 <sgx_unregister_aex_handler+0x43>
    4837:	66 0f 1f 84 00 00 00 	nopw   0x0(%rax,%rax,1)
    483e:	00 00 
    4840:	48 89 ca             	mov    %rcx,%rdx
    4843:	48 8b 4a 10          	mov    0x10(%rdx),%rcx
    4847:	48 39 1a             	cmp    %rbx,(%rdx)
    484a:	0f 84 88 00 00 00    	je     48d8 <sgx_unregister_aex_handler+0xd8>
    4850:	48 89 d6             	mov    %rdx,%rsi
    4853:	48 85 c9             	test   %rcx,%rcx
    4856:	75 e8                	jne    4840 <sgx_unregister_aex_handler+0x40>
    4858:	41 bc 02 00 00 00    	mov    $0x2,%r12d
    485e:	85 ed                	test   %ebp,%ebp
    4860:	75 46                	jne    48a8 <sgx_unregister_aex_handler+0xa8>
    4862:	44 89 e0             	mov    %r12d,%eax
    4865:	5b                   	pop    %rbx
    4866:	5d                   	pop    %rbp
    4867:	41 5c                	pop    %r12
    4869:	c3                   	ret    
    486a:	66 0f 1f 44 00 00    	nopw   0x0(%rax,%rax,1)
    4870:	e8 d7 f0 02 00       	call   3394c <get_thread_data>
    4875:	49 89 c4             	mov    %rax,%r12
    4878:	48 85 c0             	test   %rax,%rax
    487b:	74 17                	je     4894 <sgx_unregister_aex_handler+0x94>
    487d:	e8 ee e3 02 00       	call   32c70 <sgx_self_report>
    4882:	f6 40 31 04          	testb  $0x4,0x31(%rax)
    4886:	74 0c                	je     4894 <sgx_unregister_aex_handler+0x94>
    4888:	49 8b 44 24 20       	mov    0x20(%r12),%rax
    488d:	80 a0 a7 00 00 00 fe 	andb   $0xfe,0xa7(%rax)
    4894:	e8 b3 f0 02 00       	call   3394c <get_thread_data>
    4899:	48 8b 50 48          	mov    0x48(%rax),%rdx
    489d:	48 85 d2             	test   %rdx,%rdx
    48a0:	75 91                	jne    4833 <sgx_unregister_aex_handler+0x33>
    48a2:	41 bc 01 00 00 00    	mov    $0x1,%r12d
    48a8:	e8 9f f0 02 00       	call   3394c <get_thread_data>
    48ad:	48 89 c3             	mov    %rax,%rbx
    48b0:	48 85 c0             	test   %rax,%rax
    48b3:	74 ad                	je     4862 <sgx_unregister_aex_handler+0x62>
    48b5:	e8 b6 e3 02 00       	call   32c70 <sgx_self_report>
    48ba:	f6 40 31 04          	testb  $0x4,0x31(%rax)
    48be:	74 a2                	je     4862 <sgx_unregister_aex_handler+0x62>
    48c0:	48 8b 43 20          	mov    0x20(%rbx),%rax
    48c4:	80 88 a7 00 00 00 01 	orb    $0x1,0xa7(%rax)
    48cb:	44 89 e0             	mov    %r12d,%eax
    48ce:	5b                   	pop    %rbx
    48cf:	5d                   	pop    %rbp
    48d0:	41 5c                	pop    %r12
    48d2:	c3                   	ret    
    48d3:	0f 1f 44 00 00       	nopl   0x0(%rax,%rax,1)
    48d8:	48 85 f6             	test   %rsi,%rsi
    48db:	74 23                	je     4900 <sgx_unregister_aex_handler+0x100>
    48dd:	48 89 4e 10          	mov    %rcx,0x10(%rsi)
    48e1:	45 31 e4             	xor    %r12d,%r12d
    48e4:	e9 75 ff ff ff       	jmp    485e <sgx_unregister_aex_handler+0x5e>
    48e9:	0f 1f 80 00 00 00 00 	nopl   0x0(%rax)
    48f0:	41 bc 02 00 00 00    	mov    $0x2,%r12d
    48f6:	5b                   	pop    %rbx
    48f7:	5d                   	pop    %rbp
    48f8:	44 89 e0             	mov    %r12d,%eax
    48fb:	41 5c                	pop    %r12
    48fd:	c3                   	ret    
    48fe:	66 90                	xchg   %ax,%ax
    4900:	48 89 48 48          	mov    %rcx,0x48(%rax)
    4904:	45 31 e4             	xor    %r12d,%r12d
    4907:	e9 52 ff ff ff       	jmp    485e <sgx_unregister_aex_handler+0x5e>
    490c:	0f 1f 40 00          	nopl   0x0(%rax)

0000000000004910 <sgx_apply_mitigations>:
    4910:	f3 0f 1e fa          	endbr64 
    4914:	55                   	push   %rbp
    4915:	48 89 fd             	mov    %rdi,%rbp
    4918:	53                   	push   %rbx
    4919:	48 83 ec 08          	sub    $0x8,%rsp
    491d:	e8 2a f0 02 00       	call   3394c <get_thread_data>
    4922:	48 8b 58 48          	mov    0x48(%rax),%rbx
    4926:	48 85 db             	test   %rbx,%rbx
    4929:	74 17                	je     4942 <sgx_apply_mitigations+0x32>
    492b:	0f 1f 44 00 00       	nopl   0x0(%rax,%rax,1)
    4930:	48 8b 73 08          	mov    0x8(%rbx),%rsi
    4934:	48 89 ef             	mov    %rbp,%rdi
    4937:	ff 13                	call   *(%rbx)
    4939:	48 8b 5b 10          	mov    0x10(%rbx),%rbx
    493d:	48 85 db             	test   %rbx,%rbx
    4940:	75 ee                	jne    4930 <sgx_apply_mitigations+0x20>
    4942:	48 83 c4 08          	add    $0x8,%rsp
    4946:	31 c0                	xor    %eax,%eax
    4948:	5b                   	pop    %rbx
    4949:	5d                   	pop    %rbp
    494a:	c3                   	ret    
    494b:	0f 1f 44 00 00       	nopl   0x0(%rax,%rax,1)

0000000000004950 <_pthread_thread_run>:
    4950:	f3 0f 1e fa          	endbr64 
    4954:	31 c0                	xor    %eax,%eax
    4956:	c3                   	ret    
    4957:	66 0f 1f 84 00 00 00 	nopw   0x0(%rax,%rax,1)
    495e:	00 00 

0000000000004960 <_ZL11do_save_tcsPv>:
    4960:	55                   	push   %rbp
    4961:	53                   	push   %rbx
    4962:	48 89 fb             	mov    %rdi,%rbx
    4965:	48 83 ec 18          	sub    $0x18,%rsp
    4969:	64 48 8b 04 25 28 00 	mov    %fs:0x28,%rax
    4970:	00 00 
    4972:	48 89 44 24 08       	mov    %rax,0x8(%rsp)
    4977:	31 c0                	xor    %eax,%eax
    4979:	48 83 3d 87 b2 03 00 	cmpq   $0x0,0x3b287(%rip)        # 3fc08 <_ZL12g_tcs_cookie>
    4980:	00 
    4981:	74 4d                	je     49d0 <_ZL11do_save_tcsPv+0x70>
    4983:	bf 10 00 00 00       	mov    $0x10,%edi
    4988:	e8 43 68 00 00       	call   b1d0 <dlmalloc>
    498d:	48 85 c0             	test   %rax,%rax
    4990:	74 68                	je     49fa <_ZL11do_save_tcsPv+0x9a>
    4992:	48 8b 15 77 b2 03 00 	mov    0x3b277(%rip),%rdx        # 3fc10 <_ZL10g_tcs_node>
    4999:	48 33 1d 68 b2 03 00 	xor    0x3b268(%rip),%rbx        # 3fc08 <_ZL12g_tcs_cookie>
    49a0:	48 89 05 69 b2 03 00 	mov    %rax,0x3b269(%rip)        # 3fc10 <_ZL10g_tcs_node>
    49a7:	48 89 18             	mov    %rbx,(%rax)
    49aa:	48 89 50 08          	mov    %rdx,0x8(%rax)
    49ae:	31 c0                	xor    %eax,%eax
    49b0:	48 8b 54 24 08       	mov    0x8(%rsp),%rdx
    49b5:	64 48 2b 14 25 28 00 	sub    %fs:0x28,%rdx
    49bc:	00 00 
    49be:	75 62                	jne    4a22 <_ZL11do_save_tcsPv+0xc2>
    49c0:	48 83 c4 18          	add    $0x18,%rsp
    49c4:	5b                   	pop    %rbx
    49c5:	5d                   	pop    %rbp
    49c6:	c3                   	ret    
    49c7:	66 0f 1f 84 00 00 00 	nopw   0x0(%rax,%rax,1)
    49ce:	00 00 
    49d0:	48 c7 04 24 00 00 00 	movq   $0x0,(%rsp)
    49d7:	00 
    49d8:	48 89 e5             	mov    %rsp,%rbp
    49db:	eb 0c                	jmp    49e9 <_ZL11do_save_tcsPv+0x89>
    49dd:	0f 1f 00             	nopl   (%rax)
    49e0:	48 8b 04 24          	mov    (%rsp),%rax
    49e4:	48 85 c0             	test   %rax,%rax
    49e7:	75 1f                	jne    4a08 <_ZL11do_save_tcsPv+0xa8>
    49e9:	be 08 00 00 00       	mov    $0x8,%esi
    49ee:	48 89 ef             	mov    %rbp,%rdi
    49f1:	e8 aa f4 ff ff       	call   3ea0 <sgx_read_rand>
    49f6:	85 c0                	test   %eax,%eax
    49f8:	74 e6                	je     49e0 <_ZL11do_save_tcsPv+0x80>
    49fa:	b8 01 00 00 00       	mov    $0x1,%eax
    49ff:	eb af                	jmp    49b0 <_ZL11do_save_tcsPv+0x50>
    4a01:	0f 1f 80 00 00 00 00 	nopl   0x0(%rax)
    4a08:	48 83 3d f8 b1 03 00 	cmpq   $0x0,0x3b1f8(%rip)        # 3fc08 <_ZL12g_tcs_cookie>
    4a0f:	00 
    4a10:	0f 85 6d ff ff ff    	jne    4983 <_ZL11do_save_tcsPv+0x23>
    4a16:	48 89 05 eb b1 03 00 	mov    %rax,0x3b1eb(%rip)        # 3fc08 <_ZL12g_tcs_cookie>
    4a1d:	e9 61 ff ff ff       	jmp    4983 <_ZL11do_save_tcsPv+0x23>
    4a22:	e8 29 9e 00 00       	call   e850 <__stack_chk_fail>
    4a27:	66 0f 1f 84 00 00 00 	nopw   0x0(%rax,%rax,1)
    4a2e:	00 00 

0000000000004a30 <_ZL18add_static_threadsPVK9_layout_tS1_m>:
    4a30:	48 39 f7             	cmp    %rsi,%rdi
    4a33:	0f 83 cf 00 00 00    	jae    4b08 <_ZL18add_static_threadsPVK9_layout_tS1_m+0xd8>
    4a39:	41 56                	push   %r14
    4a3b:	41 55                	push   %r13
    4a3d:	49 89 f5             	mov    %rsi,%r13
    4a40:	41 54                	push   %r12
    4a42:	49 89 d4             	mov    %rdx,%r12
    4a45:	55                   	push   %rbp
    4a46:	53                   	push   %rbx
    4a47:	48 89 fb             	mov    %rdi,%rbx
    4a4a:	eb 0d                	jmp    4a59 <_ZL18add_static_threadsPVK9_layout_tS1_m+0x29>
    4a4c:	0f 1f 40 00          	nopl   0x0(%rax)
    4a50:	48 83 c3 20          	add    $0x20,%rbx
    4a54:	49 39 dd             	cmp    %rbx,%r13
    4a57:	76 77                	jbe    4ad0 <_ZL18add_static_threadsPVK9_layout_tS1_m+0xa0>
    4a59:	0f b7 03             	movzwl (%rbx),%eax
    4a5c:	f6 c4 10             	test   $0x10,%ah
    4a5f:	75 13                	jne    4a74 <_ZL18add_static_threadsPVK9_layout_tS1_m+0x44>
    4a61:	48 8b 43 18          	mov    0x18(%rbx),%rax
    4a65:	f6 c4 01             	test   $0x1,%ah
    4a68:	74 0a                	je     4a74 <_ZL18add_static_threadsPVK9_layout_tS1_m+0x44>
    4a6a:	0f b7 43 02          	movzwl 0x2(%rbx),%eax
    4a6e:	66 83 f8 03          	cmp    $0x3,%ax
    4a72:	74 6c                	je     4ae0 <_ZL18add_static_threadsPVK9_layout_tS1_m+0xb0>
    4a74:	0f b7 03             	movzwl (%rbx),%eax
    4a77:	f6 c4 10             	test   $0x10,%ah
    4a7a:	74 d4                	je     4a50 <_ZL18add_static_threadsPVK9_layout_tS1_m+0x20>
    4a7c:	8b 43 04             	mov    0x4(%rbx),%eax
    4a7f:	85 c0                	test   %eax,%eax
    4a81:	74 cd                	je     4a50 <_ZL18add_static_threadsPVK9_layout_tS1_m+0x20>
    4a83:	31 ed                	xor    %ebp,%ebp
    4a85:	45 31 f6             	xor    %r14d,%r14d
    4a88:	eb 10                	jmp    4a9a <_ZL18add_static_threadsPVK9_layout_tS1_m+0x6a>
    4a8a:	66 0f 1f 44 00 00    	nopw   0x0(%rax,%rax,1)
    4a90:	8b 43 04             	mov    0x4(%rbx),%eax
    4a93:	83 c5 01             	add    $0x1,%ebp
    4a96:	39 e8                	cmp    %ebp,%eax
    4a98:	76 b6                	jbe    4a50 <_ZL18add_static_threadsPVK9_layout_tS1_m+0x20>
    4a9a:	48 8b 43 08          	mov    0x8(%rbx),%rax
    4a9e:	0f b7 7b 02          	movzwl 0x2(%rbx),%edi
    4aa2:	48 89 de             	mov    %rbx,%rsi
    4aa5:	f7 df                	neg    %edi
    4aa7:	49 01 c6             	add    %rax,%r14
    4aaa:	48 63 ff             	movslq %edi,%rdi
    4aad:	4c 89 f2             	mov    %r14,%rdx
    4ab0:	48 c1 e7 05          	shl    $0x5,%rdi
    4ab4:	48 01 df             	add    %rbx,%rdi
    4ab7:	e8 74 ff ff ff       	call   4a30 <_ZL18add_static_threadsPVK9_layout_tS1_m>
    4abc:	85 c0                	test   %eax,%eax
    4abe:	74 d0                	je     4a90 <_ZL18add_static_threadsPVK9_layout_tS1_m+0x60>
    4ac0:	5b                   	pop    %rbx
    4ac1:	5d                   	pop    %rbp
    4ac2:	41 5c                	pop    %r12
    4ac4:	41 5d                	pop    %r13
    4ac6:	41 5e                	pop    %r14
    4ac8:	c3                   	ret    
    4ac9:	0f 1f 80 00 00 00 00 	nopl   0x0(%rax)
    4ad0:	5b                   	pop    %rbx
    4ad1:	31 c0                	xor    %eax,%eax
    4ad3:	5d                   	pop    %rbp
    4ad4:	41 5c                	pop    %r12
    4ad6:	41 5d                	pop    %r13
    4ad8:	41 5e                	pop    %r14
    4ada:	c3                   	ret    
    4adb:	0f 1f 44 00 00       	nopl   0x0(%rax,%rax,1)
    4ae0:	48 8b 6b 08          	mov    0x8(%rbx),%rbp
    4ae4:	e8 18 ee 02 00       	call   33901 <get_enclave_base>
    4ae9:	4c 01 e5             	add    %r12,%rbp
    4aec:	48 8d 3c 28          	lea    (%rax,%rbp,1),%rdi
    4af0:	e8 6b fe ff ff       	call   4960 <_ZL11do_save_tcsPv>
    4af5:	85 c0                	test   %eax,%eax
    4af7:	0f 84 53 ff ff ff    	je     4a50 <_ZL18add_static_threadsPVK9_layout_tS1_m+0x20>
    4afd:	b8 ff ff ff ff       	mov    $0xffffffff,%eax
    4b02:	eb bc                	jmp    4ac0 <_ZL18add_static_threadsPVK9_layout_tS1_m+0x90>
    4b04:	0f 1f 40 00          	nopl   0x0(%rax)
    4b08:	31 c0                	xor    %eax,%eax
    4b0a:	c3                   	ret    
    4b0b:	0f 1f 44 00 00       	nopl   0x0(%rax,%rax,1)

0000000000004b10 <_ZL10trts_ecalljPv>:
    4b10:	f3 0f 1e fa          	endbr64 
    4b14:	41 55                	push   %r13
    4b16:	41 54                	push   %r12
    4b18:	55                   	push   %rbp
    4b19:	48 89 f5             	mov    %rsi,%rbp
    4b1c:	53                   	push   %rbx
    4b1d:	89 fb                	mov    %edi,%ebx
    4b1f:	48 83 ec 08          	sub    $0x8,%rsp
    4b23:	0f b6 05 f6 76 03 00 	movzbl 0x376f6(%rip),%eax        # 3c220 <_ZL16g_is_first_ecall>
    4b2a:	84 c0                	test   %al,%al
    4b2c:	0f 85 ce 00 00 00    	jne    4c00 <_ZL10trts_ecalljPv+0xf0>
    4b32:	83 fb fa             	cmp    $0xfffffffa,%ebx
    4b35:	0f 84 8d 00 00 00    	je     4bc8 <_ZL10trts_ecalljPv+0xb8>
    4b3b:	4c 8d 25 de 6e 03 00 	lea    0x36ede(%rip),%r12        # 3ba20 <g_ecall_table>
    4b42:	49 3b 1c 24          	cmp    (%r12),%rbx
    4b46:	73 68                	jae    4bb0 <_ZL10trts_ecalljPv+0xa0>
    4b48:	e8 ff ed 02 00       	call   3394c <get_thread_data>
    4b4d:	0f ae e8             	lfence 
    4b50:	48 8b 50 08          	mov    0x8(%rax),%rdx
    4b54:	48 3b 50 10          	cmp    0x10(%rax),%rdx
    4b58:	0f 84 ca 00 00 00    	je     4c28 <_ZL10trts_ecalljPv+0x118>
    4b5e:	48 81 7a 20 44 49 43 	cmpq   $0x4f434944,0x20(%rdx)
    4b65:	4f 
    4b66:	0f 85 6e 01 00 00    	jne    4cda <_ZL10trts_ecalljPv+0x1ca>
    4b6c:	48 8d 05 5d f5 02 00 	lea    0x2f55d(%rip),%rax        # 340d0 <g_dyn_entry_table>
    4b73:	48 8b 52 28          	mov    0x28(%rdx),%rdx
    4b77:	48 3b 10             	cmp    (%rax),%rdx
    4b7a:	73 34                	jae    4bb0 <_ZL10trts_ecalljPv+0xa0>
    4b7c:	49 0f af 14 24       	imul   (%r12),%rdx
    4b81:	48 01 d8             	add    %rbx,%rax
    4b84:	80 7c 02 08 00       	cmpb   $0x0,0x8(%rdx,%rax,1)
    4b89:	0f 84 80 00 00 00    	je     4c0f <_ZL10trts_ecalljPv+0xff>
    4b8f:	48 c1 e3 04          	shl    $0x4,%rbx
    4b93:	31 f6                	xor    %esi,%esi
    4b95:	49 8b 5c 1c 08       	mov    0x8(%r12,%rbx,1),%rbx
    4b9a:	48 89 df             	mov    %rbx,%rdi
    4b9d:	e8 0e f1 ff ff       	call   3cb0 <sgx_is_within_enclave>
    4ba2:	85 c0                	test   %eax,%eax
    4ba4:	74 42                	je     4be8 <_ZL10trts_ecalljPv+0xd8>
    4ba6:	48 89 d8             	mov    %rbx,%rax
    4ba9:	eb 24                	jmp    4bcf <_ZL10trts_ecalljPv+0xbf>
    4bab:	0f 1f 44 00 00       	nopl   0x0(%rax,%rax,1)
    4bb0:	41 bc 01 10 00 00    	mov    $0x1001,%r12d
    4bb6:	48 83 c4 08          	add    $0x8,%rsp
    4bba:	44 89 e0             	mov    %r12d,%eax
    4bbd:	5b                   	pop    %rbx
    4bbe:	5d                   	pop    %rbp
    4bbf:	41 5c                	pop    %r12
    4bc1:	41 5d                	pop    %r13
    4bc3:	c3                   	ret    
    4bc4:	0f 1f 40 00          	nopl   0x0(%rax)
    4bc8:	48 8d 05 81 fd ff ff 	lea    -0x27f(%rip),%rax        # 4950 <_pthread_thread_run>
    4bcf:	0f ae e8             	lfence 
    4bd2:	48 83 c4 08          	add    $0x8,%rsp
    4bd6:	48 89 ef             	mov    %rbp,%rdi
    4bd9:	5b                   	pop    %rbx
    4bda:	5d                   	pop    %rbp
    4bdb:	41 5c                	pop    %r12
    4bdd:	41 5d                	pop    %r13
    4bdf:	ff e0                	jmp    *%rax
    4be1:	0f 1f 80 00 00 00 00 	nopl   0x0(%rax)
    4be8:	48 83 c4 08          	add    $0x8,%rsp
    4bec:	41 bc 01 00 00 00    	mov    $0x1,%r12d
    4bf2:	5b                   	pop    %rbx
    4bf3:	44 89 e0             	mov    %r12d,%eax
    4bf6:	5d                   	pop    %rbp
    4bf7:	41 5c                	pop    %r12
    4bf9:	41 5d                	pop    %r13
    4bfb:	c3                   	ret    
    4bfc:	0f 1f 40 00          	nopl   0x0(%rax)
    4c00:	e8 47 ed 02 00       	call   3394c <get_thread_data>
    4c05:	48 8b 48 10          	mov    0x10(%rax),%rcx
    4c09:	48 39 48 08          	cmp    %rcx,0x8(%rax)
    4c0d:	74 31                	je     4c40 <_ZL10trts_ecalljPv+0x130>
    4c0f:	48 83 c4 08          	add    $0x8,%rsp
    4c13:	41 bc 07 10 00 00    	mov    $0x1007,%r12d
    4c19:	5b                   	pop    %rbx
    4c1a:	44 89 e0             	mov    %r12d,%eax
    4c1d:	5d                   	pop    %rbp
    4c1e:	41 5c                	pop    %r12
    4c20:	41 5d                	pop    %r13
    4c22:	c3                   	ret    
    4c23:	0f 1f 44 00 00       	nopl   0x0(%rax,%rax,1)
    4c28:	48 89 d8             	mov    %rbx,%rax
    4c2b:	48 c1 e0 04          	shl    $0x4,%rax
    4c2f:	41 80 7c 04 10 00    	cmpb   $0x0,0x10(%r12,%rax,1)
    4c35:	0f 84 54 ff ff ff    	je     4b8f <_ZL10trts_ecalljPv+0x7f>
    4c3b:	eb d2                	jmp    4c0f <_ZL10trts_ecalljPv+0xff>
    4c3d:	0f 1f 00             	nopl   (%rax)
    4c40:	4c 8d 2d bd af 03 00 	lea    0x3afbd(%rip),%r13        # 3fc04 <_ZL10g_ife_lock>
    4c47:	4c 89 ef             	mov    %r13,%rdi
    4c4a:	e8 c1 5b 00 00       	call   a810 <sgx_spin_lock>
    4c4f:	0f b6 05 ca 75 03 00 	movzbl 0x375ca(%rip),%eax        # 3c220 <_ZL16g_is_first_ecall>
    4c56:	84 c0                	test   %al,%al
    4c58:	74 53                	je     4cad <_ZL10trts_ecalljPv+0x19d>
    4c5a:	48 8d 05 b3 70 03 00 	lea    0x370b3(%rip),%rax        # 3bd14 <EDMM_supported>
    4c61:	8b 00                	mov    (%rax),%eax
    4c63:	85 c0                	test   %eax,%eax
    4c65:	74 3a                	je     4ca1 <_ZL10trts_ecalljPv+0x191>
    4c67:	48 8d 05 92 a8 03 00 	lea    0x3a892(%rip),%rax        # 3f500 <g_global_data>
    4c6e:	31 d2                	xor    %edx,%edx
    4c70:	8b b0 58 01 00 00    	mov    0x158(%rax),%esi
    4c76:	48 8d b8 60 01 00 00 	lea    0x160(%rax),%rdi
    4c7d:	48 c1 e6 05          	shl    $0x5,%rsi
    4c81:	48 01 fe             	add    %rdi,%rsi
    4c84:	e8 a7 fd ff ff       	call   4a30 <_ZL18add_static_threadsPVK9_layout_tS1_m>
    4c89:	85 c0                	test   %eax,%eax
    4c8b:	75 2d                	jne    4cba <_ZL10trts_ecalljPv+0x1aa>
    4c8d:	e8 6f ec 02 00       	call   33901 <get_enclave_base>
    4c92:	48 89 c7             	mov    %rax,%rdi
    4c95:	e8 26 1d 00 00       	call   69c0 <change_protection>
    4c9a:	41 89 c4             	mov    %eax,%r12d
    4c9d:	85 c0                	test   %eax,%eax
    4c9f:	75 2c                	jne    4ccd <_ZL10trts_ecalljPv+0x1bd>
    4ca1:	e8 7a 21 00 00       	call   6e20 <init_global_object>
    4ca6:	c6 05 73 75 03 00 00 	movb   $0x0,0x37573(%rip)        # 3c220 <_ZL16g_is_first_ecall>
    4cad:	4c 89 ef             	mov    %r13,%rdi
    4cb0:	e8 fb 5b 00 00       	call   a8b0 <sgx_spin_unlock>
    4cb5:	e9 78 fe ff ff       	jmp    4b32 <_ZL10trts_ecalljPv+0x22>
    4cba:	4c 89 ef             	mov    %r13,%rdi
    4cbd:	41 bc 01 00 00 00    	mov    $0x1,%r12d
    4cc3:	e8 e8 5b 00 00       	call   a8b0 <sgx_spin_unlock>
    4cc8:	e9 e9 fe ff ff       	jmp    4bb6 <_ZL10trts_ecalljPv+0xa6>
    4ccd:	4c 89 ef             	mov    %r13,%rdi
    4cd0:	e8 db 5b 00 00       	call   a8b0 <sgx_spin_unlock>
    4cd5:	e9 dc fe ff ff       	jmp    4bb6 <_ZL10trts_ecalljPv+0xa6>
    4cda:	e8 61 f0 02 00       	call   33d40 <abort>
    4cdf:	90                   	nop

0000000000004ce0 <_Z30_random_stack_noinline_wrapperI9_status_tJjPvEJRiRS1_EET_PFS4_DpT0_EDpOT1_.constprop.0.isra.0>:
    4ce0:	e9 2b fe ff ff       	jmp    4b10 <_ZL10trts_ecalljPv>
    4ce5:	66 2e 0f 1f 84 00 00 	cs nopw 0x0(%rax,%rax,1)
    4cec:	00 00 00 
    4cef:	90                   	nop

0000000000004cf0 <_Z16_pthread_enabledv>:
    4cf0:	f3 0f 1e fa          	endbr64 
    4cf4:	31 c0                	xor    %eax,%eax
    4cf6:	c3                   	ret    
    4cf7:	66 0f 1f 84 00 00 00 	nopw   0x0(%rax,%rax,1)
    4cfe:	00 00 

0000000000004d00 <_Z24_pthread_tls_store_state9_status_t>:
    4d00:	f3 0f 1e fa          	endbr64 
    4d04:	c3                   	ret    
    4d05:	66 2e 0f 1f 84 00 00 	cs nopw 0x0(%rax,%rax,1)
    4d0c:	00 00 00 
    4d0f:	90                   	nop

0000000000004d10 <_Z22_pthread_tls_get_statev>:
    4d10:	f3 0f 1e fa          	endbr64 
    4d14:	31 c0                	xor    %eax,%eax
    4d16:	c3                   	ret    
    4d17:	66 0f 1f 84 00 00 00 	nopw   0x0(%rax,%rax,1)
    4d1e:	00 00 

0000000000004d20 <_Z26_pthread_tls_store_contextPv>:
    4d20:	f3 0f 1e fa          	endbr64 
    4d24:	c3                   	ret    
    4d25:	66 2e 0f 1f 84 00 00 	cs nopw 0x0(%rax,%rax,1)
    4d2c:	00 00 00 
    4d2f:	90                   	nop

0000000000004d30 <_Z20_pthread_wakeup_joinPv>:
    4d30:	f3 0f 1e fa          	endbr64 
    4d34:	c3                   	ret    
    4d35:	66 2e 0f 1f 84 00 00 	cs nopw 0x0(%rax,%rax,1)
    4d3c:	00 00 00 
    4d3f:	90                   	nop

0000000000004d40 <_Z24_pthread_tls_destructorsv>:
    4d40:	f3 0f 1e fa          	endbr64 
    4d44:	c3                   	ret    
    4d45:	66 2e 0f 1f 84 00 00 	cs nopw 0x0(%rax,%rax,1)
    4d4c:	00 00 00 
    4d4f:	90                   	nop

0000000000004d50 <tc_set_idle>:
    4d50:	f3 0f 1e fa          	endbr64 
    4d54:	c3                   	ret    
    4d55:	66 2e 0f 1f 84 00 00 	cs nopw 0x0(%rax,%rax,1)
    4d5c:	00 00 00 
    4d5f:	90                   	nop

0000000000004d60 <do_init_thread>:
    4d60:	f3 0f 1e fa          	endbr64 
    4d64:	41 57                	push   %r15
    4d66:	ba c0 00 00 00       	mov    $0xc0,%edx
    4d6b:	41 56                	push   %r14
    4d6d:	41 55                	push   %r13
    4d6f:	41 54                	push   %r12
    4d71:	41 89 f4             	mov    %esi,%r12d
    4d74:	55                   	push   %rbp
    4d75:	48 89 fd             	mov    %rdi,%rbp
    4d78:	53                   	push   %rbx
    4d79:	48 83 ec 28          	sub    $0x28,%rsp
    4d7d:	64 48 8b 04 25 28 00 	mov    %fs:0x28,%rax
    4d84:	00 00 
    4d86:	48 89 44 24 18       	mov    %rax,0x18(%rsp)
    4d8b:	48 8d 05 6e a7 03 00 	lea    0x3a76e(%rip),%rax        # 3f500 <g_global_data>
    4d92:	48 8b 58 50          	mov    0x50(%rax),%rbx
    4d96:	48 8d 70 50          	lea    0x50(%rax),%rsi
    4d9a:	48 01 fb             	add    %rdi,%rbx
    4d9d:	48 89 df             	mov    %rbx,%rdi
    4da0:	4c 8b 7b 28          	mov    0x28(%rbx),%r15
    4da4:	4c 8b 73 30          	mov    0x30(%rbx),%r14
    4da8:	4c 8b ab b0 00 00 00 	mov    0xb0(%rbx),%r13
    4daf:	e8 6c 97 00 00       	call   e520 <memcpy>
    4db4:	48 8d 85 00 fc ff ff 	lea    -0x400(%rbp),%rax
    4dbb:	48 8b 53 18          	mov    0x18(%rbx),%rdx
    4dbf:	48 01 2b             	add    %rbp,(%rbx)
    4dc2:	48 01 43 08          	add    %rax,0x8(%rbx)
    4dc6:	48 01 43 10          	add    %rax,0x10(%rbx)
    4dca:	48 8d 05 1f 6f 03 00 	lea    0x36f1f(%rip),%rax        # 3bcf0 <__intel_security_cookie>
    4dd1:	48 01 ea             	add    %rbp,%rdx
    4dd4:	48 01 6b 20          	add    %rbp,0x20(%rbx)
    4dd8:	48 8b 00             	mov    (%rax),%rax
    4ddb:	48 01 6b 58          	add    %rbp,0x58(%rbx)
    4ddf:	48 01 6b 70          	add    %rbp,0x70(%rbx)
    4de3:	48 01 6b 68          	add    %rbp,0x68(%rbx)
    4de7:	48 89 53 18          	mov    %rdx,0x18(%rbx)
    4deb:	48 89 93 b0 00 00 00 	mov    %rdx,0xb0(%rbx)
    4df2:	4c 89 7b 28          	mov    %r15,0x28(%rbx)
    4df6:	4c 89 73 30          	mov    %r14,0x30(%rbx)
    4dfa:	48 89 85 08 fc fe ff 	mov    %rax,-0x103f8(%rbp)
    4e01:	48 8d 05 0c 6f 03 00 	lea    0x36f0c(%rip),%rax        # 3bd14 <EDMM_supported>
    4e08:	8b 00                	mov    (%rax),%eax
    4e0a:	85 c0                	test   %eax,%eax
    4e0c:	74 09                	je     4e17 <do_init_thread+0xb7>
    4e0e:	45 84 e4             	test   %r12b,%r12b
    4e11:	0f 85 a9 00 00 00    	jne    4ec0 <do_init_thread+0x160>
    4e17:	48 8d 15 de 6e 03 00 	lea    0x36ede(%rip),%rdx        # 3bcfc <g_aexnotify_supported>
    4e1e:	83 3a 01             	cmpl   $0x1,(%rdx)
    4e21:	75 08                	jne    4e2b <do_init_thread+0xcb>
    4e23:	48 c7 43 50 01 00 00 	movq   $0x1,0x50(%rbx)
    4e2a:	00 
    4e2b:	4d 85 ed             	test   %r13,%r13
    4e2e:	0f 85 ec 00 00 00    	jne    4f20 <do_init_thread+0x1c0>
    4e34:	85 c0                	test   %eax,%eax
    4e36:	75 68                	jne    4ea0 <do_init_thread+0x140>
    4e38:	48 c7 44 24 08 00 00 	movq   $0x0,0x8(%rsp)
    4e3f:	00 00 
    4e41:	48 c7 44 24 10 00 00 	movq   $0x0,0x10(%rsp)
    4e48:	00 00 
    4e4a:	e8 b2 ea 02 00       	call   33901 <get_enclave_base>
    4e4f:	48 8d 54 24 10       	lea    0x10(%rsp),%rdx
    4e54:	48 8d 74 24 08       	lea    0x8(%rsp),%rsi
    4e59:	48 89 c7             	mov    %rax,%rdi
    4e5c:	e8 df 18 00 00       	call   6740 <elf_tls_info>
    4e61:	41 89 c0             	mov    %eax,%r8d
    4e64:	b8 01 00 00 00       	mov    $0x1,%eax
    4e69:	45 85 c0             	test   %r8d,%r8d
    4e6c:	75 0a                	jne    4e78 <do_init_thread+0x118>
    4e6e:	48 83 7c 24 08 00    	cmpq   $0x0,0x8(%rsp)
    4e74:	75 5a                	jne    4ed0 <do_init_thread+0x170>
    4e76:	31 c0                	xor    %eax,%eax
    4e78:	48 8b 54 24 18       	mov    0x18(%rsp),%rdx
    4e7d:	64 48 2b 14 25 28 00 	sub    %fs:0x28,%rdx
    4e84:	00 00 
    4e86:	0f 85 b9 00 00 00    	jne    4f45 <do_init_thread+0x1e5>
    4e8c:	48 83 c4 28          	add    $0x28,%rsp
    4e90:	5b                   	pop    %rbx
    4e91:	5d                   	pop    %rbp
    4e92:	41 5c                	pop    %r12
    4e94:	41 5d                	pop    %r13
    4e96:	41 5e                	pop    %r14
    4e98:	41 5f                	pop    %r15
    4e9a:	c3                   	ret    
    4e9b:	0f 1f 44 00 00       	nopl   0x0(%rax,%rax,1)
    4ea0:	45 84 e4             	test   %r12b,%r12b
    4ea3:	0f 84 87 00 00 00    	je     4f30 <do_init_thread+0x1d0>
    4ea9:	e8 a2 f5 ff ff       	call   4450 <get_dynamic_stack_max_page>
    4eae:	89 c0                	mov    %eax,%eax
    4eb0:	48 c1 e0 0c          	shl    $0xc,%rax
    4eb4:	48 01 83 b0 00 00 00 	add    %rax,0xb0(%rbx)
    4ebb:	e9 78 ff ff ff       	jmp    4e38 <do_init_thread+0xd8>
    4ec0:	48 c7 43 30 01 00 00 	movq   $0x1,0x30(%rbx)
    4ec7:	00 
    4ec8:	e9 4a ff ff ff       	jmp    4e17 <do_init_thread+0xb7>
    4ecd:	0f 1f 00             	nopl   (%rax)
    4ed0:	48 8b 03             	mov    (%rbx),%rax
    4ed3:	48 8b 7b 68          	mov    0x68(%rbx),%rdi
    4ed7:	31 f6                	xor    %esi,%esi
    4ed9:	48 8d 90 ff 0f 00 00 	lea    0xfff(%rax),%rdx
    4ee0:	48 29 fa             	sub    %rdi,%rdx
    4ee3:	48 81 e7 00 f0 ff ff 	and    $0xfffffffffffff000,%rdi
    4eea:	48 81 e2 00 f0 ff ff 	and    $0xfffffffffffff000,%rdx
    4ef1:	e8 6a 98 00 00       	call   e760 <memset>
    4ef6:	48 8b 7b 68          	mov    0x68(%rbx),%rdi
    4efa:	48 8b 03             	mov    (%rbx),%rax
    4efd:	48 8b 54 24 10       	mov    0x10(%rsp),%rdx
    4f02:	48 8b 74 24 08       	mov    0x8(%rsp),%rsi
    4f07:	48 29 f8             	sub    %rdi,%rax
    4f0a:	48 39 c2             	cmp    %rax,%rdx
    4f0d:	0f 87 63 ff ff ff    	ja     4e76 <do_init_thread+0x116>
    4f13:	e8 08 96 00 00       	call   e520 <memcpy>
    4f18:	e9 59 ff ff ff       	jmp    4e76 <do_init_thread+0x116>
    4f1d:	0f 1f 00             	nopl   (%rax)
    4f20:	4c 89 ab b0 00 00 00 	mov    %r13,0xb0(%rbx)
    4f27:	e9 0c ff ff ff       	jmp    4e38 <do_init_thread+0xd8>
    4f2c:	0f 1f 40 00          	nopl   0x0(%rax)
    4f30:	48 89 ef             	mov    %rbp,%rdi
    4f33:	e8 f8 f3 ff ff       	call   4330 <is_dynamic_thread>
    4f38:	85 c0                	test   %eax,%eax
    4f3a:	0f 85 69 ff ff ff    	jne    4ea9 <do_init_thread+0x149>
    4f40:	e9 f3 fe ff ff       	jmp    4e38 <do_init_thread+0xd8>
    4f45:	e8 06 99 00 00       	call   e850 <__stack_chk_fail>
    4f4a:	66 0f 1f 44 00 00    	nopw   0x0(%rax,%rax,1)

0000000000004f50 <do_ecall>:
    4f50:	f3 0f 1e fa          	endbr64 
    4f54:	55                   	push   %rbp
    4f55:	48 89 d5             	mov    %rdx,%rbp
    4f58:	48 83 ec 70          	sub    $0x70,%rsp
    4f5c:	89 7c 24 10          	mov    %edi,0x10(%rsp)
    4f60:	48 89 34 24          	mov    %rsi,(%rsp)
    4f64:	64 48 8b 04 25 28 00 	mov    %fs:0x28,%rax
    4f6b:	00 00 
    4f6d:	48 89 44 24 68       	mov    %rax,0x68(%rsp)
    4f72:	31 c0                	xor    %eax,%eax
    4f74:	e8 94 e9 02 00       	call   3390d <get_enclave_state>
    4f79:	41 89 c0             	mov    %eax,%r8d
    4f7c:	b8 01 00 00 00       	mov    $0x1,%eax
    4f81:	41 83 f8 02          	cmp    $0x2,%r8d
    4f85:	74 21                	je     4fa8 <do_ecall+0x58>
    4f87:	48 8b 54 24 68       	mov    0x68(%rsp),%rdx
    4f8c:	64 48 2b 14 25 28 00 	sub    %fs:0x28,%rdx
    4f93:	00 00 
    4f95:	0f 85 e3 01 00 00    	jne    517e <do_ecall+0x22e>
    4f9b:	48 83 c4 70          	add    $0x70,%rsp
    4f9f:	5d                   	pop    %rbp
    4fa0:	c3                   	ret    
    4fa1:	0f 1f 80 00 00 00 00 	nopl   0x0(%rax)
    4fa8:	e8 9f e9 02 00       	call   3394c <get_thread_data>
    4fad:	48 85 c0             	test   %rax,%rax
    4fb0:	0f 84 16 01 00 00    	je     50cc <do_ecall+0x17c>
    4fb6:	48 8b 48 08          	mov    0x8(%rax),%rcx
    4fba:	48 39 48 10          	cmp    %rcx,0x10(%rax)
    4fbe:	0f 84 f4 00 00 00    	je     50b8 <do_ecall+0x168>
    4fc4:	e8 83 e9 02 00       	call   3394c <get_thread_data>
    4fc9:	48 83 78 50 01       	cmpq   $0x1,0x50(%rax)
    4fce:	48 89 44 24 08       	mov    %rax,0x8(%rsp)
    4fd3:	0f 84 0f 01 00 00    	je     50e8 <do_ecall+0x198>
    4fd9:	48 8b 44 24 08       	mov    0x8(%rsp),%rax
    4fde:	48 8b 48 08          	mov    0x8(%rax),%rcx
    4fe2:	48 39 48 10          	cmp    %rcx,0x10(%rax)
    4fe6:	74 48                	je     5030 <do_ecall+0xe0>
    4fe8:	48 8b 34 24          	mov    (%rsp),%rsi
    4fec:	8b 7c 24 10          	mov    0x10(%rsp),%edi
    4ff0:	e8 1b fb ff ff       	call   4b10 <_ZL10trts_ecalljPv>
    4ff5:	48 8d 15 04 a5 03 00 	lea    0x3a504(%rip),%rdx        # 3f500 <g_global_data>
    4ffc:	48 8b 52 38          	mov    0x38(%rdx),%rdx
    5000:	48 85 d2             	test   %rdx,%rdx
    5003:	74 82                	je     4f87 <do_ecall+0x37>
    5005:	48 8b 4c 24 08       	mov    0x8(%rsp),%rcx
    500a:	48 8b 71 08          	mov    0x8(%rcx),%rsi
    500e:	48 39 71 10          	cmp    %rsi,0x10(%rcx)
    5012:	0f 85 6f ff ff ff    	jne    4f87 <do_ecall+0x37>
    5018:	89 44 24 1c          	mov    %eax,0x1c(%rsp)
    501c:	e8 2f fd ff ff       	call   4d50 <tc_set_idle>
    5021:	8b 44 24 1c          	mov    0x1c(%rsp),%eax
    5025:	e9 5d ff ff ff       	jmp    4f87 <do_ecall+0x37>
    502a:	66 0f 1f 44 00 00    	nopw   0x0(%rax,%rax,1)
    5030:	31 ff                	xor    %edi,%edi
    5032:	e8 d9 ef ff ff       	call   4010 <sgx_wrpkru>
    5037:	e8 b4 fc ff ff       	call   4cf0 <_Z16_pthread_enabledv>
    503c:	84 c0                	test   %al,%al
    503e:	0f 84 fc 00 00 00    	je     5140 <do_ecall+0x1f0>
    5044:	66 0f ef c0          	pxor   %xmm0,%xmm0
    5048:	48 8d 7c 24 20       	lea    0x20(%rsp),%rdi
    504d:	0f 29 44 24 20       	movaps %xmm0,0x20(%rsp)
    5052:	0f 29 44 24 30       	movaps %xmm0,0x30(%rsp)
    5057:	0f 29 44 24 40       	movaps %xmm0,0x40(%rsp)
    505c:	0f 29 44 24 50       	movaps %xmm0,0x50(%rsp)
    5061:	e8 25 9b 00 00       	call   eb8b <setjmp>
    5066:	f3 0f 1e fa          	endbr64 
    506a:	85 c0                	test   %eax,%eax
    506c:	0f 84 96 00 00 00    	je     5108 <do_ecall+0x1b8>
    5072:	48 8b 4c 24 08       	mov    0x8(%rsp),%rcx
    5077:	48 8b 41 10          	mov    0x10(%rcx),%rax
    507b:	48 89 41 08          	mov    %rax,0x8(%rcx)
    507f:	b8 09 00 00 00       	mov    $0x9,%eax
    5084:	bf 09 00 00 00       	mov    $0x9,%edi
    5089:	89 44 24 18          	mov    %eax,0x18(%rsp)
    508d:	e8 6e fc ff ff       	call   4d00 <_Z24_pthread_tls_store_state9_status_t>
    5092:	8b 44 24 18          	mov    0x18(%rsp),%eax
    5096:	89 44 24 14          	mov    %eax,0x14(%rsp)
    509a:	e8 a1 fc ff ff       	call   4d40 <_Z24_pthread_tls_destructorsv>
    509f:	48 8b 3c 24          	mov    (%rsp),%rdi
    50a3:	e8 88 fc ff ff       	call   4d30 <_Z20_pthread_wakeup_joinPv>
    50a8:	8b 44 24 14          	mov    0x14(%rsp),%eax
    50ac:	e9 44 ff ff ff       	jmp    4ff5 <do_ecall+0xa5>
    50b1:	0f 1f 80 00 00 00 00 	nopl   0x0(%rax)
    50b8:	48 8d 05 41 a4 03 00 	lea    0x3a441(%rip),%rax        # 3f500 <g_global_data>
    50bf:	48 8b 40 38          	mov    0x38(%rax),%rax
    50c3:	48 85 c0             	test   %rax,%rax
    50c6:	0f 84 94 00 00 00    	je     5160 <do_ecall+0x210>
    50cc:	31 f6                	xor    %esi,%esi
    50ce:	48 89 ef             	mov    %rbp,%rdi
    50d1:	e8 8a fc ff ff       	call   4d60 <do_init_thread>
    50d6:	85 c0                	test   %eax,%eax
    50d8:	0f 84 e6 fe ff ff    	je     4fc4 <do_ecall+0x74>
    50de:	e9 a4 fe ff ff       	jmp    4f87 <do_ecall+0x37>
    50e3:	0f 1f 44 00 00       	nopl   0x0(%rax,%rax,1)
    50e8:	48 8b 44 24 08       	mov    0x8(%rsp),%rax
    50ed:	bf 01 00 00 00       	mov    $0x1,%edi
    50f2:	48 c7 40 50 00 00 00 	movq   $0x0,0x50(%rax)
    50f9:	00 
    50fa:	e8 c1 f5 ff ff       	call   46c0 <sgx_set_ssa_aexnotify>
    50ff:	e9 d5 fe ff ff       	jmp    4fd9 <do_ecall+0x89>
    5104:	0f 1f 40 00          	nopl   0x0(%rax)
    5108:	48 8d 7c 24 20       	lea    0x20(%rsp),%rdi
    510d:	e8 0e fc ff ff       	call   4d20 <_Z26_pthread_tls_store_contextPv>
    5112:	0f c7 f0             	rdrand %eax
    5115:	73 fb                	jae    5112 <do_ecall+0x1c2>
    5117:	8b 6c 24 10          	mov    0x10(%rsp),%ebp
    511b:	48 8b 34 24          	mov    (%rsp),%rsi
    511f:	89 ef                	mov    %ebp,%edi
    5121:	e8 ba fb ff ff       	call   4ce0 <_Z30_random_stack_noinline_wrapperI9_status_tJjPvEJRiRS1_EET_PFS4_DpT0_EDpOT1_.constprop.0.isra.0>
    5126:	83 fd fa             	cmp    $0xfffffffa,%ebp
    5129:	0f 84 55 ff ff ff    	je     5084 <do_ecall+0x134>
    512f:	83 f8 09             	cmp    $0x9,%eax
    5132:	0f 85 5e ff ff ff    	jne    5096 <do_ecall+0x146>
    5138:	e9 47 ff ff ff       	jmp    5084 <do_ecall+0x134>
    513d:	0f 1f 00             	nopl   (%rax)
    5140:	0f c7 f0             	rdrand %eax
    5143:	73 fb                	jae    5140 <do_ecall+0x1f0>
    5145:	48 8b 34 24          	mov    (%rsp),%rsi
    5149:	8b 7c 24 10          	mov    0x10(%rsp),%edi
    514d:	e8 8e fb ff ff       	call   4ce0 <_Z30_random_stack_noinline_wrapperI9_status_tJjPvEJRiRS1_EET_PFS4_DpT0_EDpOT1_.constprop.0.isra.0>
    5152:	e9 9e fe ff ff       	jmp    4ff5 <do_ecall+0xa5>
    5157:	66 0f 1f 84 00 00 00 	nopw   0x0(%rax,%rax,1)
    515e:	00 00 
    5160:	e8 ab fb ff ff       	call   4d10 <_Z22_pthread_tls_get_statev>
    5165:	83 7c 24 10 fa       	cmpl   $0xfffffffa,0x10(%rsp)
    516a:	0f 84 5c ff ff ff    	je     50cc <do_ecall+0x17c>
    5170:	83 f8 09             	cmp    $0x9,%eax
    5173:	0f 85 4b fe ff ff    	jne    4fc4 <do_ecall+0x74>
    5179:	e9 4e ff ff ff       	jmp    50cc <do_ecall+0x17c>
    517e:	e8 cd 96 00 00       	call   e850 <__stack_chk_fail>
    5183:	66 2e 0f 1f 84 00 00 	cs nopw 0x0(%rax,%rax,1)
    518a:	00 00 00 
    518d:	0f 1f 00             	nopl   (%rax)

0000000000005190 <do_ecall_add_thread>:
    5190:	f3 0f 1e fa          	endbr64 
    5194:	41 54                	push   %r12
    5196:	53                   	push   %rbx
    5197:	48 89 fb             	mov    %rdi,%rbx
    519a:	48 83 ec 08          	sub    $0x8,%rsp
    519e:	e8 6d 06 00 00       	call   5810 <is_utility_thread>
    51a3:	3c 01                	cmp    $0x1,%al
    51a5:	0f 85 ad 00 00 00    	jne    5258 <do_ecall_add_thread+0xc8>
    51ab:	48 85 db             	test   %rbx,%rbx
    51ae:	0f 84 a4 00 00 00    	je     5258 <do_ecall_add_thread+0xc8>
    51b4:	be 08 00 00 00       	mov    $0x8,%esi
    51b9:	48 89 df             	mov    %rbx,%rdi
    51bc:	e8 4f eb ff ff       	call   3d10 <sgx_is_outside_enclave>
    51c1:	85 c0                	test   %eax,%eax
    51c3:	0f 84 8f 00 00 00    	je     5258 <do_ecall_add_thread+0xc8>
    51c9:	0f ae e8             	lfence 
    51cc:	48 8b 1b             	mov    (%rbx),%rbx
    51cf:	48 85 db             	test   %rbx,%rbx
    51d2:	0f 84 80 00 00 00    	je     5258 <do_ecall_add_thread+0xc8>
    51d8:	0f ae e8             	lfence 
    51db:	48 89 df             	mov    %rbx,%rdi
    51de:	e8 7d f7 ff ff       	call   4960 <_ZL11do_save_tcsPv>
    51e3:	41 89 c4             	mov    %eax,%r12d
    51e6:	85 c0                	test   %eax,%eax
    51e8:	75 74                	jne    525e <do_ecall_add_thread+0xce>
    51ea:	48 89 df             	mov    %rbx,%rdi
    51ed:	e8 be f2 ff ff       	call   44b0 <do_add_thread>
    51f2:	41 89 c4             	mov    %eax,%r12d
    51f5:	85 c0                	test   %eax,%eax
    51f7:	74 65                	je     525e <do_ecall_add_thread+0xce>
    51f9:	e8 12 06 00 00       	call   5810 <is_utility_thread>
    51fe:	84 c0                	test   %al,%al
    5200:	74 5c                	je     525e <do_ecall_add_thread+0xce>
    5202:	4c 8b 05 07 aa 03 00 	mov    0x3aa07(%rip),%r8        # 3fc10 <_ZL10g_tcs_node>
    5209:	4d 85 c0             	test   %r8,%r8
    520c:	74 50                	je     525e <do_ecall_add_thread+0xce>
    520e:	48 8b 0d f3 a9 03 00 	mov    0x3a9f3(%rip),%rcx        # 3fc08 <_ZL12g_tcs_cookie>
    5215:	49 8b 00             	mov    (%r8),%rax
    5218:	49 8b 78 08          	mov    0x8(%r8),%rdi
    521c:	48 31 c8             	xor    %rcx,%rax
    521f:	48 39 c3             	cmp    %rax,%rbx
    5222:	74 45                	je     5269 <do_ecall_add_thread+0xd9>
    5224:	48 85 ff             	test   %rdi,%rdi
    5227:	75 12                	jne    523b <do_ecall_add_thread+0xab>
    5229:	eb 33                	jmp    525e <do_ecall_add_thread+0xce>
    522b:	0f 1f 44 00 00       	nopl   0x0(%rax,%rax,1)
    5230:	49 89 f8             	mov    %rdi,%r8
    5233:	48 85 c0             	test   %rax,%rax
    5236:	74 26                	je     525e <do_ecall_add_thread+0xce>
    5238:	48 89 c7             	mov    %rax,%rdi
    523b:	48 8b 17             	mov    (%rdi),%rdx
    523e:	48 8b 47 08          	mov    0x8(%rdi),%rax
    5242:	48 31 ca             	xor    %rcx,%rdx
    5245:	48 39 d3             	cmp    %rdx,%rbx
    5248:	75 e6                	jne    5230 <do_ecall_add_thread+0xa0>
    524a:	49 89 40 08          	mov    %rax,0x8(%r8)
    524e:	e8 5d 7c 00 00       	call   ceb0 <dlfree>
    5253:	eb 09                	jmp    525e <do_ecall_add_thread+0xce>
    5255:	0f 1f 00             	nopl   (%rax)
    5258:	41 bc 01 00 00 00    	mov    $0x1,%r12d
    525e:	48 83 c4 08          	add    $0x8,%rsp
    5262:	44 89 e0             	mov    %r12d,%eax
    5265:	5b                   	pop    %rbx
    5266:	41 5c                	pop    %r12
    5268:	c3                   	ret    
    5269:	48 89 3d a0 a9 03 00 	mov    %rdi,0x3a9a0(%rip)        # 3fc10 <_ZL10g_tcs_node>
    5270:	4c 89 c7             	mov    %r8,%rdi
    5273:	e8 38 7c 00 00       	call   ceb0 <dlfree>
    5278:	eb e4                	jmp    525e <do_ecall_add_thread+0xce>
    527a:	66 0f 1f 44 00 00    	nopw   0x0(%rax,%rax,1)

0000000000005280 <do_uninit_enclave>:
    5280:	f3 0f 1e fa          	endbr64 
    5284:	48 8d 05 89 6a 03 00 	lea    0x36a89(%rip),%rax        # 3bd14 <EDMM_supported>
    528b:	41 54                	push   %r12
    528d:	55                   	push   %rbp
    528e:	53                   	push   %rbx
    528f:	8b 00                	mov    (%rax),%eax
    5291:	85 c0                	test   %eax,%eax
    5293:	0f 84 a4 00 00 00    	je     533d <do_uninit_enclave+0xbd>
    5299:	49 89 fc             	mov    %rdi,%r12
    529c:	e8 6f 05 00 00       	call   5810 <is_utility_thread>
    52a1:	84 c0                	test   %al,%al
    52a3:	0f 84 87 00 00 00    	je     5330 <do_uninit_enclave+0xb0>
    52a9:	f0 83 0d 4f a9 03 00 	lock orl $0x1,0x3a94f(%rip)        # 3fc00 <g_uninit_flag>
    52b0:	01 
    52b1:	48 8b 2d 58 a9 03 00 	mov    0x3a958(%rip),%rbp        # 3fc10 <_ZL10g_tcs_node>
    52b8:	48 c7 05 4d a9 03 00 	movq   $0x0,0x3a94d(%rip)        # 3fc10 <_ZL10g_tcs_node>
    52bf:	00 00 00 00 
    52c3:	eb 30                	jmp    52f5 <do_uninit_enclave+0x75>
    52c5:	0f 1f 00             	nopl   (%rax)
    52c8:	48 8b 7d 00          	mov    0x0(%rbp),%rdi
    52cc:	48 33 3d 35 a9 03 00 	xor    0x3a935(%rip),%rdi        # 3fc08 <_ZL12g_tcs_cookie>
    52d3:	4c 39 e7             	cmp    %r12,%rdi
    52d6:	74 0e                	je     52e6 <do_uninit_enclave+0x66>
    52d8:	be 00 10 00 00       	mov    $0x1000,%esi
    52dd:	e8 1e 48 00 00       	call   9b00 <mm_dealloc>
    52e2:	85 c0                	test   %eax,%eax
    52e4:	75 57                	jne    533d <do_uninit_enclave+0xbd>
    52e6:	48 8b 5d 08          	mov    0x8(%rbp),%rbx
    52ea:	48 89 ef             	mov    %rbp,%rdi
    52ed:	e8 be 7b 00 00       	call   ceb0 <dlfree>
    52f2:	48 89 dd             	mov    %rbx,%rbp
    52f5:	48 85 ed             	test   %rbp,%rbp
    52f8:	75 ce                	jne    52c8 <do_uninit_enclave+0x48>
    52fa:	48 8d 2d 03 a9 03 00 	lea    0x3a903(%rip),%rbp        # 3fc04 <_ZL10g_ife_lock>
    5301:	48 89 ef             	mov    %rbp,%rdi
    5304:	e8 07 55 00 00       	call   a810 <sgx_spin_lock>
    5309:	0f b6 05 10 6f 03 00 	movzbl 0x36f10(%rip),%eax        # 3c220 <_ZL16g_is_first_ecall>
    5310:	84 c0                	test   %al,%al
    5312:	74 44                	je     5358 <do_uninit_enclave+0xd8>
    5314:	48 89 ef             	mov    %rbp,%rdi
    5317:	e8 94 55 00 00       	call   a8b0 <sgx_spin_unlock>
    531c:	bf 03 00 00 00       	mov    $0x3,%edi
    5321:	e8 f8 e5 02 00       	call   3391e <set_enclave_state>
    5326:	5b                   	pop    %rbx
    5327:	31 c0                	xor    %eax,%eax
    5329:	5d                   	pop    %rbp
    532a:	41 5c                	pop    %r12
    532c:	c3                   	ret    
    532d:	0f 1f 00             	nopl   (%rax)
    5330:	e8 ab f0 ff ff       	call   43e0 <is_dynamic_thread_exist>
    5335:	85 c0                	test   %eax,%eax
    5337:	0f 84 6c ff ff ff    	je     52a9 <do_uninit_enclave+0x29>
    533d:	bf 03 00 00 00       	mov    $0x3,%edi
    5342:	e8 d7 e5 02 00       	call   3391e <set_enclave_state>
    5347:	5b                   	pop    %rbx
    5348:	b8 01 00 00 00       	mov    $0x1,%eax
    534d:	5d                   	pop    %rbp
    534e:	41 5c                	pop    %r12
    5350:	c3                   	ret    
    5351:	0f 1f 80 00 00 00 00 	nopl   0x0(%rax)
    5358:	e8 63 1b 00 00       	call   6ec0 <uninit_global_object>
    535d:	eb b5                	jmp    5314 <do_uninit_enclave+0x94>
    535f:	90                   	nop

0000000000005360 <sgx_ocall>:
    5360:	f3 0f 1e fa          	endbr64 
    5364:	8d 47 07             	lea    0x7(%rdi),%eax
    5367:	83 f8 05             	cmp    $0x5,%eax
    536a:	76 12                	jbe    537e <sgx_ocall+0x1e>
    536c:	85 ff                	test   %edi,%edi
    536e:	74 0e                	je     537e <sgx_ocall+0x1e>
    5370:	48 8d 15 59 ed 02 00 	lea    0x2ed59(%rip),%rdx        # 340d0 <g_dyn_entry_table>
    5377:	89 f8                	mov    %edi,%eax
    5379:	48 3b 02             	cmp    (%rdx),%rax
    537c:	73 0a                	jae    5388 <sgx_ocall+0x28>
    537e:	e9 65 e8 02 00       	jmp    33be8 <__morestack>
    5383:	0f 1f 44 00 00       	nopl   0x0(%rax,%rax,1)
    5388:	b8 01 10 00 00       	mov    $0x1001,%eax
    538d:	c3                   	ret    
    538e:	66 90                	xchg   %ax,%ax

0000000000005390 <update_ocall_lastsp>:
    5390:	f3 0f 1e fa          	endbr64 
    5394:	53                   	push   %rbx
    5395:	48 89 fb             	mov    %rdi,%rbx
    5398:	e8 af e5 02 00       	call   3394c <get_thread_data>
    539d:	ba 01 00 00 00       	mov    $0x1,%edx
    53a2:	4c 8b 40 08          	mov    0x8(%rax),%r8
    53a6:	4c 89 43 30          	mov    %r8,0x30(%rbx)
    53aa:	4c 39 40 10          	cmp    %r8,0x10(%rax)
    53ae:	74 0b                	je     53bb <update_ocall_lastsp+0x2b>
    53b0:	49 8b 88 90 00 00 00 	mov    0x90(%r8),%rcx
    53b7:	48 8d 51 01          	lea    0x1(%rcx),%rdx
    53bb:	48 89 93 90 00 00 00 	mov    %rdx,0x90(%rbx)
    53c2:	48 89 58 08          	mov    %rbx,0x8(%rax)
    53c6:	4c 89 c0             	mov    %r8,%rax
    53c9:	5b                   	pop    %rbx
    53ca:	c3                   	ret    
    53cb:	0f 1f 44 00 00       	nopl   0x0(%rax,%rax,1)

00000000000053d0 <do_oret>:
    53d0:	f3 0f 1e fa          	endbr64 
    53d4:	55                   	push   %rbp
    53d5:	48 89 fd             	mov    %rdi,%rbp
    53d8:	53                   	push   %rbx
    53d9:	48 83 ec 18          	sub    $0x18,%rsp
    53dd:	64 48 8b 04 25 28 00 	mov    %fs:0x28,%rax
    53e4:	00 00 
    53e6:	48 89 44 24 08       	mov    %rax,0x8(%rsp)
    53eb:	31 c0                	xor    %eax,%eax
    53ed:	e8 5a e5 02 00       	call   3394c <get_thread_data>
    53f2:	48 83 78 50 01       	cmpq   $0x1,0x50(%rax)
    53f7:	48 89 c3             	mov    %rax,%rbx
    53fa:	74 74                	je     5470 <do_oret+0xa0>
    53fc:	48 8b 7b 08          	mov    0x8(%rbx),%rdi
    5400:	48 89 e0             	mov    %rsp,%rax
    5403:	48 89 3c 24          	mov    %rdi,(%rsp)
    5407:	48 39 f8             	cmp    %rdi,%rax
    540a:	72 24                	jb     5430 <do_oret+0x60>
    540c:	48 8b 44 24 08       	mov    0x8(%rsp),%rax
    5411:	64 48 2b 04 25 28 00 	sub    %fs:0x28,%rax
    5418:	00 00 
    541a:	75 6b                	jne    5487 <do_oret+0xb7>
    541c:	48 83 c4 18          	add    $0x18,%rsp
    5420:	b8 01 00 00 00       	mov    $0x1,%eax
    5425:	5b                   	pop    %rbx
    5426:	5d                   	pop    %rbp
    5427:	c3                   	ret    
    5428:	0f 1f 84 00 00 00 00 	nopl   0x0(%rax,%rax,1)
    542f:	00 
    5430:	48 8b 43 10          	mov    0x10(%rbx),%rax
    5434:	48 8d 90 10 ff ff ff 	lea    -0xf0(%rax),%rdx
    543b:	48 39 fa             	cmp    %rdi,%rdx
    543e:	72 cc                	jb     540c <do_oret+0x3c>
    5440:	48 81 7f 20 44 49 43 	cmpq   $0x4f434944,0x20(%rdi)
    5447:	4f 
    5448:	75 c2                	jne    540c <do_oret+0x3c>
    544a:	48 8b 57 30          	mov    0x30(%rdi),%rdx
    544e:	48 39 d0             	cmp    %rdx,%rax
    5451:	72 b9                	jb     540c <do_oret+0x3c>
    5453:	48 39 fa             	cmp    %rdi,%rdx
    5456:	76 b4                	jbe    540c <do_oret+0x3c>
    5458:	48 89 53 08          	mov    %rdx,0x8(%rbx)
    545c:	48 89 ee             	mov    %rbp,%rsi
    545f:	e8 97 e7 02 00       	call   33bfb <asm_oret>
    5464:	eb a6                	jmp    540c <do_oret+0x3c>
    5466:	66 2e 0f 1f 84 00 00 	cs nopw 0x0(%rax,%rax,1)
    546d:	00 00 00 
    5470:	48 c7 40 50 00 00 00 	movq   $0x0,0x50(%rax)
    5477:	00 
    5478:	bf 01 00 00 00       	mov    $0x1,%edi
    547d:	e8 3e f2 ff ff       	call   46c0 <sgx_set_ssa_aexnotify>
    5482:	e9 75 ff ff ff       	jmp    53fc <do_oret+0x2c>
    5487:	e8 c4 93 00 00       	call   e850 <__stack_chk_fail>
    548c:	0f 1f 40 00          	nopl   0x0(%rax)

0000000000005490 <get_enclave_size>:
    5490:	f3 0f 1e fa          	endbr64 
    5494:	48 8d 05 65 a0 03 00 	lea    0x3a065(%rip),%rax        # 3f500 <g_global_data>
    549b:	48 8b 40 08          	mov    0x8(%rax),%rax
    549f:	c3                   	ret    

00000000000054a0 <get_enclave_end>:
    54a0:	f3 0f 1e fa          	endbr64 
    54a4:	48 83 ec 08          	sub    $0x8,%rsp
    54a8:	e8 54 e4 02 00       	call   33901 <get_enclave_base>
    54ad:	48 8d 15 4c a0 03 00 	lea    0x3a04c(%rip),%rdx        # 3f500 <g_global_data>
    54b4:	48 8b 52 08          	mov    0x8(%rdx),%rdx
    54b8:	48 83 c4 08          	add    $0x8,%rsp
    54bc:	48 8d 44 02 ff       	lea    -0x1(%rdx,%rax,1),%rax
    54c1:	c3                   	ret    
    54c2:	66 2e 0f 1f 84 00 00 	cs nopw 0x0(%rax,%rax,1)
    54c9:	00 00 00 
    54cc:	0f 1f 40 00          	nopl   0x0(%rax)

00000000000054d0 <get_heap_base>:
    54d0:	f3 0f 1e fa          	endbr64 
    54d4:	48 83 ec 08          	sub    $0x8,%rsp
    54d8:	e8 24 e4 02 00       	call   33901 <get_enclave_base>
    54dd:	48 8d 15 1c a0 03 00 	lea    0x3a01c(%rip),%rdx        # 3f500 <g_global_data>
    54e4:	48 8b 52 10          	mov    0x10(%rdx),%rdx
    54e8:	48 83 c4 08          	add    $0x8,%rsp
    54ec:	48 01 d0             	add    %rdx,%rax
    54ef:	c3                   	ret    

00000000000054f0 <get_heap_size>:
    54f0:	f3 0f 1e fa          	endbr64 
    54f4:	48 8d 05 19 68 03 00 	lea    0x36819(%rip),%rax        # 3bd14 <EDMM_supported>
    54fb:	48 8d 0d fe 9f 03 00 	lea    0x39ffe(%rip),%rcx        # 3f500 <g_global_data>
    5502:	8b 00                	mov    (%rax),%eax
    5504:	4c 8b 41 18          	mov    0x18(%rcx),%r8
    5508:	85 c0                	test   %eax,%eax
    550a:	74 41                	je     554d <get_heap_size+0x5d>
    550c:	8b 81 58 01 00 00    	mov    0x158(%rcx),%eax
    5512:	85 c0                	test   %eax,%eax
    5514:	74 37                	je     554d <get_heap_size+0x5d>
    5516:	31 d2                	xor    %edx,%edx
    5518:	0f 1f 84 00 00 00 00 	nopl   0x0(%rax,%rax,1)
    551f:	00 
    5520:	89 d0                	mov    %edx,%eax
    5522:	48 83 c0 0b          	add    $0xb,%rax
    5526:	48 c1 e0 05          	shl    $0x5,%rax
    552a:	48 01 c8             	add    %rcx,%rax
    552d:	0f b7 30             	movzwl (%rax),%esi
    5530:	66 83 fe 03          	cmp    $0x3,%si
    5534:	75 0a                	jne    5540 <get_heap_size+0x50>
    5536:	8b 40 04             	mov    0x4(%rax),%eax
    5539:	48 c1 e0 0c          	shl    $0xc,%rax
    553d:	49 01 c0             	add    %rax,%r8
    5540:	8b 81 58 01 00 00    	mov    0x158(%rcx),%eax
    5546:	83 c2 01             	add    $0x1,%edx
    5549:	39 d0                	cmp    %edx,%eax
    554b:	77 d3                	ja     5520 <get_heap_size+0x30>
    554d:	4c 89 c0             	mov    %r8,%rax
    5550:	c3                   	ret    
    5551:	66 2e 0f 1f 84 00 00 	cs nopw 0x0(%rax,%rax,1)
    5558:	00 00 00 
    555b:	0f 1f 44 00 00       	nopl   0x0(%rax,%rax,1)

0000000000005560 <get_heap_min_size>:
    5560:	f3 0f 1e fa          	endbr64 
    5564:	48 8d 0d 95 9f 03 00 	lea    0x39f95(%rip),%rcx        # 3f500 <g_global_data>
    556b:	8b 81 58 01 00 00    	mov    0x158(%rcx),%eax
    5571:	85 c0                	test   %eax,%eax
    5573:	74 3b                	je     55b0 <get_heap_min_size+0x50>
    5575:	31 d2                	xor    %edx,%edx
    5577:	eb 14                	jmp    558d <get_heap_min_size+0x2d>
    5579:	0f 1f 80 00 00 00 00 	nopl   0x0(%rax)
    5580:	8b 81 58 01 00 00    	mov    0x158(%rcx),%eax
    5586:	83 c2 01             	add    $0x1,%edx
    5589:	39 d0                	cmp    %edx,%eax
    558b:	76 23                	jbe    55b0 <get_heap_min_size+0x50>
    558d:	89 d0                	mov    %edx,%eax
    558f:	48 83 c0 0b          	add    $0xb,%rax
    5593:	48 c1 e0 05          	shl    $0x5,%rax
    5597:	48 01 c8             	add    %rcx,%rax
    559a:	0f b7 30             	movzwl (%rax),%esi
    559d:	66 83 fe 01          	cmp    $0x1,%si
    55a1:	75 dd                	jne    5580 <get_heap_min_size+0x20>
    55a3:	8b 40 04             	mov    0x4(%rax),%eax
    55a6:	48 c1 e0 0c          	shl    $0xc,%rax
    55aa:	c3                   	ret    
    55ab:	0f 1f 44 00 00       	nopl   0x0(%rax,%rax,1)
    55b0:	31 c0                	xor    %eax,%eax
    55b2:	c3                   	ret    
    55b3:	66 2e 0f 1f 84 00 00 	cs nopw 0x0(%rax,%rax,1)
    55ba:	00 00 00 
    55bd:	0f 1f 00             	nopl   (%rax)

00000000000055c0 <get_rsrv_base>:
    55c0:	f3 0f 1e fa          	endbr64 
    55c4:	48 83 ec 08          	sub    $0x8,%rsp
    55c8:	e8 34 e3 02 00       	call   33901 <get_enclave_base>
    55cd:	48 8d 15 2c 9f 03 00 	lea    0x39f2c(%rip),%rdx        # 3f500 <g_global_data>
    55d4:	48 8b 52 20          	mov    0x20(%rdx),%rdx
    55d8:	48 83 c4 08          	add    $0x8,%rsp
    55dc:	48 01 d0             	add    %rdx,%rax
    55df:	c3                   	ret    

00000000000055e0 <get_rsrv_end>:
    55e0:	f3 0f 1e fa          	endbr64 
    55e4:	48 83 ec 08          	sub    $0x8,%rsp
    55e8:	e8 14 e3 02 00       	call   33901 <get_enclave_base>
    55ed:	48 8d 35 0c 9f 03 00 	lea    0x39f0c(%rip),%rsi        # 3f500 <g_global_data>
    55f4:	48 8d 15 19 67 03 00 	lea    0x36719(%rip),%rdx        # 3bd14 <EDMM_supported>
    55fb:	4c 8b 4e 20          	mov    0x20(%rsi),%r9
    55ff:	8b 12                	mov    (%rdx),%edx
    5601:	4c 8b 46 28          	mov    0x28(%rsi),%r8
    5605:	49 83 e9 01          	sub    $0x1,%r9
    5609:	85 d2                	test   %edx,%edx
    560b:	74 40                	je     564d <get_rsrv_end+0x6d>
    560d:	8b 96 58 01 00 00    	mov    0x158(%rsi),%edx
    5613:	85 d2                	test   %edx,%edx
    5615:	74 36                	je     564d <get_rsrv_end+0x6d>
    5617:	31 c9                	xor    %ecx,%ecx
    5619:	0f 1f 80 00 00 00 00 	nopl   0x0(%rax)
    5620:	89 ca                	mov    %ecx,%edx
    5622:	48 83 c2 0b          	add    $0xb,%rdx
    5626:	48 c1 e2 05          	shl    $0x5,%rdx
    562a:	48 01 f2             	add    %rsi,%rdx
    562d:	0f b7 3a             	movzwl (%rdx),%edi
    5630:	66 83 ff 16          	cmp    $0x16,%di
    5634:	75 0a                	jne    5640 <get_rsrv_end+0x60>
    5636:	8b 52 04             	mov    0x4(%rdx),%edx
    5639:	48 c1 e2 0c          	shl    $0xc,%rdx
    563d:	49 01 d0             	add    %rdx,%r8
    5640:	8b 96 58 01 00 00    	mov    0x158(%rsi),%edx
    5646:	83 c1 01             	add    $0x1,%ecx
    5649:	39 d1                	cmp    %edx,%ecx
    564b:	72 d3                	jb     5620 <get_rsrv_end+0x40>
    564d:	4c 01 c8             	add    %r9,%rax
    5650:	48 83 c4 08          	add    $0x8,%rsp
    5654:	4c 01 c0             	add    %r8,%rax
    5657:	c3                   	ret    
    5658:	0f 1f 84 00 00 00 00 	nopl   0x0(%rax,%rax,1)
    565f:	00 

0000000000005660 <get_rsrv_size>:
    5660:	f3 0f 1e fa          	endbr64 
    5664:	48 8d 05 a9 66 03 00 	lea    0x366a9(%rip),%rax        # 3bd14 <EDMM_supported>
    566b:	48 8d 0d 8e 9e 03 00 	lea    0x39e8e(%rip),%rcx        # 3f500 <g_global_data>
    5672:	8b 00                	mov    (%rax),%eax
    5674:	4c 8b 41 28          	mov    0x28(%rcx),%r8
    5678:	85 c0                	test   %eax,%eax
    567a:	74 41                	je     56bd <get_rsrv_size+0x5d>
    567c:	8b 81 58 01 00 00    	mov    0x158(%rcx),%eax
    5682:	85 c0                	test   %eax,%eax
    5684:	74 37                	je     56bd <get_rsrv_size+0x5d>
    5686:	31 d2                	xor    %edx,%edx
    5688:	0f 1f 84 00 00 00 00 	nopl   0x0(%rax,%rax,1)
    568f:	00 
    5690:	89 d0                	mov    %edx,%eax
    5692:	48 83 c0 0b          	add    $0xb,%rax
    5696:	48 c1 e0 05          	shl    $0x5,%rax
    569a:	48 01 c8             	add    %rcx,%rax
    569d:	0f b7 30             	movzwl (%rax),%esi
    56a0:	66 83 fe 16          	cmp    $0x16,%si
    56a4:	75 0a                	jne    56b0 <get_rsrv_size+0x50>
    56a6:	8b 40 04             	mov    0x4(%rax),%eax
    56a9:	48 c1 e0 0c          	shl    $0xc,%rax
    56ad:	49 01 c0             	add    %rax,%r8
    56b0:	8b 81 58 01 00 00    	mov    0x158(%rcx),%eax
    56b6:	83 c2 01             	add    $0x1,%edx
    56b9:	39 d0                	cmp    %edx,%eax
    56bb:	77 d3                	ja     5690 <get_rsrv_size+0x30>
    56bd:	4c 89 c0             	mov    %r8,%rax
    56c0:	c3                   	ret    
    56c1:	66 2e 0f 1f 84 00 00 	cs nopw 0x0(%rax,%rax,1)
    56c8:	00 00 00 
    56cb:	0f 1f 44 00 00       	nopl   0x0(%rax,%rax,1)

00000000000056d0 <get_rsrv_min_size>:
    56d0:	f3 0f 1e fa          	endbr64 
    56d4:	48 8d 0d 25 9e 03 00 	lea    0x39e25(%rip),%rcx        # 3f500 <g_global_data>
    56db:	8b 81 58 01 00 00    	mov    0x158(%rcx),%eax
    56e1:	85 c0                	test   %eax,%eax
    56e3:	74 3b                	je     5720 <get_rsrv_min_size+0x50>
    56e5:	31 d2                	xor    %edx,%edx
    56e7:	eb 14                	jmp    56fd <get_rsrv_min_size+0x2d>
    56e9:	0f 1f 80 00 00 00 00 	nopl   0x0(%rax)
    56f0:	8b 81 58 01 00 00    	mov    0x158(%rcx),%eax
    56f6:	83 c2 01             	add    $0x1,%edx
    56f9:	39 d0                	cmp    %edx,%eax
    56fb:	76 23                	jbe    5720 <get_rsrv_min_size+0x50>
    56fd:	89 d0                	mov    %edx,%eax
    56ff:	48 83 c0 0b          	add    $0xb,%rax
    5703:	48 c1 e0 05          	shl    $0x5,%rax
    5707:	48 01 c8             	add    %rcx,%rax
    570a:	0f b7 30             	movzwl (%rax),%esi
    570d:	66 83 fe 14          	cmp    $0x14,%si
    5711:	75 dd                	jne    56f0 <get_rsrv_min_size+0x20>
    5713:	8b 40 04             	mov    0x4(%rax),%eax
    5716:	48 c1 e0 0c          	shl    $0xc,%rax
    571a:	c3                   	ret    
    571b:	0f 1f 44 00 00       	nopl   0x0(%rax,%rax,1)
    5720:	31 c0                	xor    %eax,%eax
    5722:	c3                   	ret    
    5723:	66 2e 0f 1f 84 00 00 	cs nopw 0x0(%rax,%rax,1)
    572a:	00 00 00 
    572d:	0f 1f 00             	nopl   (%rax)

0000000000005730 <get_errno_addr>:
    5730:	f3 0f 1e fa          	endbr64 
    5734:	48 83 ec 08          	sub    $0x8,%rsp
    5738:	e8 0f e2 02 00       	call   3394c <get_thread_data>
    573d:	48 83 c4 08          	add    $0x8,%rsp
    5741:	48 83 c0 40          	add    $0x40,%rax
    5745:	c3                   	ret    
    5746:	66 2e 0f 1f 84 00 00 	cs nopw 0x0(%rax,%rax,1)
    574d:	00 00 00 

0000000000005750 <feature_supported>:
    5750:	f3 0f 1e fa          	endbr64 
    5754:	48 85 ff             	test   %rdi,%rdi
    5757:	74 37                	je     5790 <feature_supported+0x40>
    5759:	31 d2                	xor    %edx,%edx
    575b:	eb 08                	jmp    5765 <feature_supported+0x15>
    575d:	0f 1f 00             	nopl   (%rax)
    5760:	48 85 c0             	test   %rax,%rax
    5763:	78 2b                	js     5790 <feature_supported+0x40>
    5765:	89 d0                	mov    %edx,%eax
    5767:	83 c2 01             	add    $0x1,%edx
    576a:	41 89 d1             	mov    %edx,%r9d
    576d:	49 89 c0             	mov    %rax,%r8
    5770:	48 8b 04 c7          	mov    (%rdi,%rax,8),%rax
    5774:	41 c1 e1 06          	shl    $0x6,%r9d
    5778:	44 39 ce             	cmp    %r9d,%esi
    577b:	73 e3                	jae    5760 <feature_supported+0x10>
    577d:	41 c1 e0 06          	shl    $0x6,%r8d
    5781:	44 29 c6             	sub    %r8d,%esi
    5784:	89 f1                	mov    %esi,%ecx
    5786:	48 d3 e8             	shr    %cl,%rax
    5789:	83 e0 01             	and    $0x1,%eax
    578c:	c3                   	ret    
    578d:	0f 1f 00             	nopl   (%rax)
    5790:	31 c0                	xor    %eax,%eax
    5792:	c3                   	ret    
    5793:	66 2e 0f 1f 84 00 00 	cs nopw 0x0(%rax,%rax,1)
    579a:	00 00 00 
    579d:	0f 1f 00             	nopl   (%rax)

00000000000057a0 <is_stack_addr>:
    57a0:	f3 0f 1e fa          	endbr64 
    57a4:	55                   	push   %rbp
    57a5:	48 89 f5             	mov    %rsi,%rbp
    57a8:	53                   	push   %rbx
    57a9:	48 89 fb             	mov    %rdi,%rbx
    57ac:	48 83 ec 08          	sub    $0x8,%rsp
    57b0:	e8 97 e1 02 00       	call   3394c <get_thread_data>
    57b5:	31 c9                	xor    %ecx,%ecx
    57b7:	48 01 dd             	add    %rbx,%rbp
    57ba:	48 89 c2             	mov    %rax,%rdx
    57bd:	0f 92 c1             	setb   %cl
    57c0:	48 3b 68 10          	cmp    0x10(%rax),%rbp
    57c4:	0f 96 c0             	setbe  %al
    57c7:	48 39 5a 18          	cmp    %rbx,0x18(%rdx)
    57cb:	0f 96 c2             	setbe  %dl
    57ce:	21 d0                	and    %edx,%eax
    57d0:	48 85 c9             	test   %rcx,%rcx
    57d3:	0f 94 c2             	sete   %dl
    57d6:	48 83 c4 08          	add    $0x8,%rsp
    57da:	21 d0                	and    %edx,%eax
    57dc:	5b                   	pop    %rbx
    57dd:	5d                   	pop    %rbp
    57de:	c3                   	ret    
    57df:	90                   	nop

00000000000057e0 <is_valid_sp>:
    57e0:	f3 0f 1e fa          	endbr64 
    57e4:	40 f6 c7 07          	test   $0x7,%dil
    57e8:	74 06                	je     57f0 <is_valid_sp+0x10>
    57ea:	31 c0                	xor    %eax,%eax
    57ec:	c3                   	ret    
    57ed:	0f 1f 00             	nopl   (%rax)
    57f0:	53                   	push   %rbx
    57f1:	48 89 fb             	mov    %rdi,%rbx
    57f4:	e8 53 e1 02 00       	call   3394c <get_thread_data>
    57f9:	48 89 c2             	mov    %rax,%rdx
    57fc:	48 3b 58 18          	cmp    0x18(%rax),%rbx
    5800:	0f 93 c0             	setae  %al
    5803:	48 3b 5a 10          	cmp    0x10(%rdx),%rbx
    5807:	5b                   	pop    %rbx
    5808:	0f 96 c2             	setbe  %dl
    580b:	21 d0                	and    %edx,%eax
    580d:	c3                   	ret    
    580e:	66 90                	xchg   %ax,%ax

0000000000005810 <is_utility_thread>:
    5810:	f3 0f 1e fa          	endbr64 
    5814:	48 83 ec 08          	sub    $0x8,%rsp
    5818:	e8 2f e1 02 00       	call   3394c <get_thread_data>
    581d:	45 31 c0             	xor    %r8d,%r8d
    5820:	48 85 c0             	test   %rax,%rax
    5823:	74 08                	je     582d <is_utility_thread+0x1d>
    5825:	4c 8b 40 30          	mov    0x30(%rax),%r8
    5829:	41 83 e0 01          	and    $0x1,%r8d
    582d:	44 89 c0             	mov    %r8d,%eax
    5830:	48 83 c4 08          	add    $0x8,%rsp
    5834:	c3                   	ret    
    5835:	66 2e 0f 1f 84 00 00 	cs nopw 0x0(%rax,%rax,1)
    583c:	00 00 00 
    583f:	90                   	nop

0000000000005840 <get_max_tcs_num>:
    5840:	f3 0f 1e fa          	endbr64 
    5844:	48 8d 05 c9 64 03 00 	lea    0x364c9(%rip),%rax        # 3bd14 <EDMM_supported>
    584b:	83 38 01             	cmpl   $0x1,(%rax)
    584e:	48 8d 05 ab 9c 03 00 	lea    0x39cab(%rip),%rax        # 3f500 <g_global_data>
    5855:	74 09                	je     5860 <get_max_tcs_num+0x20>
    5857:	48 8b 40 48          	mov    0x48(%rax),%rax
    585b:	c3                   	ret    
    585c:	0f 1f 40 00          	nopl   0x0(%rax)
    5860:	48 8b 40 40          	mov    0x40(%rax),%rax
    5864:	c3                   	ret    
    5865:	66 2e 0f 1f 84 00 00 	cs nopw 0x0(%rax,%rax,1)
    586c:	00 00 00 
    586f:	90                   	nop

0000000000005870 <is_pkru_enabled>:
    5870:	f3 0f 1e fa          	endbr64 
    5874:	48 83 ec 08          	sub    $0x8,%rsp
    5878:	e8 13 0a 00 00       	call   6290 <get_xfeature_state>
    587d:	48 83 c4 08          	add    $0x8,%rsp
    5881:	48 c1 e8 09          	shr    $0x9,%rax
    5885:	83 e0 01             	and    $0x1,%eax
    5888:	c3                   	ret    
    5889:	0f 1f 80 00 00 00 00 	nopl   0x0(%rax)

0000000000005890 <is_tcs_binding_mode>:
    5890:	f3 0f 1e fa          	endbr64 
    5894:	48 8d 05 65 9c 03 00 	lea    0x39c65(%rip),%rax        # 3f500 <g_global_data>
    589b:	48 8b 40 38          	mov    0x38(%rax),%rax
    589f:	48 85 c0             	test   %rax,%rax
    58a2:	0f 94 c0             	sete   %al
    58a5:	c3                   	ret    
    58a6:	66 2e 0f 1f 84 00 00 	cs nopw 0x0(%rax,%rax,1)
    58ad:	00 00 00 

00000000000058b0 <get_xsave_size>:
    58b0:	f3 0f 1e fa          	endbr64 
    58b4:	48 8d 05 45 9c 03 00 	lea    0x39c45(%rip),%rax        # 3f500 <g_global_data>
    58bb:	48 8b 80 88 00 00 00 	mov    0x88(%rax),%rax
    58c2:	c3                   	ret    
    58c3:	66 2e 0f 1f 84 00 00 	cs nopw 0x0(%rax,%rax,1)
    58ca:	00 00 00 
    58cd:	0f 1f 00             	nopl   (%rax)

00000000000058d0 <get_ssa_aexnotify>:
    58d0:	f3 0f 1e fa          	endbr64 
    58d4:	48 83 ec 08          	sub    $0x8,%rsp
    58d8:	e8 6f e0 02 00       	call   3394c <get_thread_data>
    58dd:	48 85 c0             	test   %rax,%rax
    58e0:	74 16                	je     58f8 <get_ssa_aexnotify+0x28>
    58e2:	48 8b 40 20          	mov    0x20(%rax),%rax
    58e6:	0f b6 80 a7 00 00 00 	movzbl 0xa7(%rax),%eax
    58ed:	48 83 c4 08          	add    $0x8,%rsp
    58f1:	83 e0 01             	and    $0x1,%eax
    58f4:	c3                   	ret    
    58f5:	0f 1f 00             	nopl   (%rax)
    58f8:	31 c0                	xor    %eax,%eax
    58fa:	48 83 c4 08          	add    $0x8,%rsp
    58fe:	c3                   	ret    
    58ff:	90                   	nop

0000000000005900 <internal_handle_exception>:
    5900:	f3 0f 1e fa          	endbr64 
    5904:	55                   	push   %rbp
    5905:	48 89 e5             	mov    %rsp,%rbp
    5908:	41 57                	push   %r15
    590a:	41 56                	push   %r14
    590c:	41 55                	push   %r13
    590e:	41 54                	push   %r12
    5910:	49 89 fc             	mov    %rdi,%r12
    5913:	53                   	push   %rbx
    5914:	48 83 ec 38          	sub    $0x38,%rsp
    5918:	64 48 8b 04 25 28 00 	mov    %fs:0x28,%rax
    591f:	00 00 
    5921:	48 89 45 c8          	mov    %rax,-0x38(%rbp)
    5925:	31 c0                	xor    %eax,%eax
    5927:	e8 20 e0 02 00       	call   3394c <get_thread_data>
    592c:	48 8b 58 20          	mov    0x20(%rax),%rbx
    5930:	49 89 c5             	mov    %rax,%r13
    5933:	e8 78 ff ff ff       	call   58b0 <get_xsave_size>
    5938:	4d 85 e4             	test   %r12,%r12
    593b:	0f 84 71 01 00 00    	je     5ab2 <internal_handle_exception+0x1b2>
    5941:	48 8d b3 ff 0f 00 00 	lea    0xfff(%rbx),%rsi
    5948:	48 05 b7 10 00 00    	add    $0x10b7,%rax
    594e:	49 8b 94 24 b0 00 00 	mov    0xb0(%r12),%rdx
    5955:	00 
    5956:	4d 8d b4 24 c0 00 00 	lea    0xc0(%r12),%r14
    595d:	00 
    595e:	48 25 00 f0 ff ff    	and    $0xfffffffffffff000,%rax
    5964:	48 81 e6 00 f0 ff ff 	and    $0xfffffffffffff000,%rsi
    596b:	4c 89 f7             	mov    %r14,%rdi
    596e:	48 29 c6             	sub    %rax,%rsi
    5971:	e8 aa 8b 00 00       	call   e520 <memcpy>
    5976:	41 8b 84 24 a8 00 00 	mov    0xa8(%r12),%eax
    597d:	00 
    597e:	85 c0                	test   %eax,%eax
    5980:	0f 84 11 01 00 00    	je     5a97 <internal_handle_exception+0x197>
    5986:	49 8b 45 78          	mov    0x78(%r13),%rax
    598a:	48 85 c0             	test   %rax,%rax
    598d:	0f 88 1f 01 00 00    	js     5ab2 <internal_handle_exception+0x1b2>
    5993:	41 83 bc 24 90 00 00 	cmpl   $0xe,0x90(%r12)
    599a:	00 0e 
    599c:	48 8d 50 01          	lea    0x1(%rax),%rdx
    59a0:	49 89 55 78          	mov    %rdx,0x78(%r13)
    59a4:	75 28                	jne    59ce <internal_handle_exception+0xce>
    59a6:	48 8b 15 6b a2 03 00 	mov    0x3a26b(%rip),%rdx        # 3fc18 <g_mm_pfhandler>
    59ad:	48 85 d2             	test   %rdx,%rdx
    59b0:	74 1c                	je     59ce <internal_handle_exception+0xce>
    59b2:	49 89 45 78          	mov    %rax,0x78(%r13)
    59b6:	49 8d bc 24 98 00 00 	lea    0x98(%r12),%rdi
    59bd:	00 
    59be:	ff d2                	call   *%rdx
    59c0:	83 c0 01             	add    $0x1,%eax
    59c3:	0f 84 ce 00 00 00    	je     5a97 <internal_handle_exception+0x197>
    59c9:	49 83 45 78 01       	addq   $0x1,0x78(%r13)
    59ce:	48 8d 1d 53 a2 03 00 	lea    0x3a253(%rip),%rbx        # 3fc28 <_ZL14g_handler_lock>
    59d5:	48 89 df             	mov    %rbx,%rdi
    59d8:	e8 33 4e 00 00       	call   a810 <sgx_spin_lock>
    59dd:	48 8b 05 4c a2 03 00 	mov    0x3a24c(%rip),%rax        # 3fc30 <_ZL12g_first_node>
    59e4:	48 85 c0             	test   %rax,%rax
    59e7:	0f 84 51 02 00 00    	je     5c3e <internal_handle_exception+0x33e>
    59ed:	45 31 ff             	xor    %r15d,%r15d
    59f0:	48 8b 40 08          	mov    0x8(%rax),%rax
    59f4:	49 83 c7 08          	add    $0x8,%r15
    59f8:	48 85 c0             	test   %rax,%rax
    59fb:	75 f3                	jne    59f0 <internal_handle_exception+0xf0>
    59fd:	4d 85 ff             	test   %r15,%r15
    5a00:	0f 84 38 02 00 00    	je     5c3e <internal_handle_exception+0x33e>
    5a06:	4c 89 ff             	mov    %r15,%rdi
    5a09:	e8 32 4c 00 00       	call   a640 <alloca>
    5a0e:	48 89 c6             	mov    %rax,%rsi
    5a11:	48 85 c0             	test   %rax,%rax
    5a14:	0f 84 a0 02 00 00    	je     5cba <internal_handle_exception+0x3ba>
    5a1a:	48 8b 05 0f a2 03 00 	mov    0x3a20f(%rip),%rax        # 3fc30 <_ZL12g_first_node>
    5a21:	48 85 c0             	test   %rax,%rax
    5a24:	74 1e                	je     5a44 <internal_handle_exception+0x144>
    5a26:	48 89 f2             	mov    %rsi,%rdx
    5a29:	0f 1f 80 00 00 00 00 	nopl   0x0(%rax)
    5a30:	48 8b 08             	mov    (%rax),%rcx
    5a33:	48 8b 40 08          	mov    0x8(%rax),%rax
    5a37:	48 83 c2 08          	add    $0x8,%rdx
    5a3b:	48 89 4a f8          	mov    %rcx,-0x8(%rdx)
    5a3f:	48 85 c0             	test   %rax,%rax
    5a42:	75 ec                	jne    5a30 <internal_handle_exception+0x130>
    5a44:	48 89 df             	mov    %rbx,%rdi
    5a47:	48 89 75 b8          	mov    %rsi,-0x48(%rbp)
    5a4b:	e8 60 4e 00 00       	call   a8b0 <sgx_spin_unlock>
    5a50:	49 83 6d 78 01       	subq   $0x1,0x78(%r13)
    5a55:	48 8b 5d b8          	mov    -0x48(%rbp),%rbx
    5a59:	49 01 df             	add    %rbx,%r15
    5a5c:	0f 1f 40 00          	nopl   0x0(%rax)
    5a60:	48 8b 03             	mov    (%rbx),%rax
    5a63:	4c 89 e7             	mov    %r12,%rdi
    5a66:	48 33 05 b3 a1 03 00 	xor    0x3a1b3(%rip),%rax        # 3fc20 <_ZL12g_veh_cookie>
    5a6d:	ff d0                	call   *%rax
    5a6f:	83 f8 ff             	cmp    $0xffffffff,%eax
    5a72:	0f 84 db 01 00 00    	je     5c53 <internal_handle_exception+0x353>
    5a78:	48 83 c3 08          	add    $0x8,%rbx
    5a7c:	4c 39 fb             	cmp    %r15,%rbx
    5a7f:	75 df                	jne    5a60 <internal_handle_exception+0x160>
    5a81:	49 8b 7c 24 20       	mov    0x20(%r12),%rdi
    5a86:	e8 55 fd ff ff       	call   57e0 <is_valid_sp>
    5a8b:	84 c0                	test   %al,%al
    5a8d:	74 23                	je     5ab2 <internal_handle_exception+0x1b2>
    5a8f:	49 c7 45 78 ff ff ff 	movq   $0xffffffffffffffff,0x78(%r13)
    5a96:	ff 
    5a97:	41 83 bc 24 ac 00 00 	cmpl   $0x1,0xac(%r12)
    5a9e:	00 01 
    5aa0:	74 1d                	je     5abf <internal_handle_exception+0x1bf>
    5aa2:	4c 89 f7             	mov    %r14,%rdi
    5aa5:	e8 e7 d9 02 00       	call   33491 <restore_xregs>
    5aaa:	4c 89 e7             	mov    %r12,%rdi
    5aad:	e8 a1 e2 02 00       	call   33d53 <continue_execution>
    5ab2:	49 c7 45 78 ff ff ff 	movq   $0xffffffffffffffff,0x78(%r13)
    5ab9:	ff 
    5aba:	e8 81 e2 02 00       	call   33d40 <abort>
    5abf:	4c 89 e7             	mov    %r12,%rdi
    5ac2:	e8 49 ee ff ff       	call   4910 <sgx_apply_mitigations>
    5ac7:	4c 89 f7             	mov    %r14,%rdi
    5aca:	e8 c2 d9 02 00       	call   33491 <restore_xregs>
    5acf:	e8 78 de 02 00       	call   3394c <get_thread_data>
    5ad4:	49 89 c7             	mov    %rax,%r15
    5ad7:	48 8b 40 10          	mov    0x10(%rax),%rax
    5adb:	49 89 c6             	mov    %rax,%r14
    5ade:	49 81 e6 00 f0 ff ff 	and    $0xfffffffffffff000,%r14
    5ae5:	75 07                	jne    5aee <internal_handle_exception+0x1ee>
    5ae7:	4c 8d b0 00 f0 ff ff 	lea    -0x1000(%rax),%r14
    5aee:	4c 89 e7             	mov    %r12,%rdi
    5af1:	49 8b 5f 18          	mov    0x18(%r15),%rbx
    5af5:	e8 06 db 02 00       	call   33600 <cselect_mitigation_rip>
    5afa:	48 89 c6             	mov    %rax,%rsi
    5afd:	4c 89 e0             	mov    %r12,%rax
    5b00:	48 25 00 f0 ff ff    	and    $0xfffffffffffff000,%rax
    5b06:	4c 39 f0             	cmp    %r14,%rax
    5b09:	0f 84 8b 01 00 00    	je     5c9a <internal_handle_exception+0x39a>
    5b0f:	48 83 c8 01          	or     $0x1,%rax
    5b13:	49 89 c6             	mov    %rax,%r14
    5b16:	48 89 f2             	mov    %rsi,%rdx
    5b19:	48 89 f1             	mov    %rsi,%rcx
    5b1c:	48 c1 ea 0b          	shr    $0xb,%rdx
    5b20:	48 81 e1 00 f0 ff ff 	and    $0xfffffffffffff000,%rcx
    5b27:	81 e2 fe 0f 00 00    	and    $0xffe,%edx
    5b2d:	48 03 15 b4 64 03 00 	add    0x364b4(%rip),%rdx        # 3bfe8 <_GLOBAL_OFFSET_TABLE_+0x38>
    5b34:	44 0f b7 0a          	movzwl (%rdx),%r9d
    5b38:	49 8d 1c 09          	lea    (%r9,%rcx,1),%rbx
    5b3c:	80 3b c3             	cmpb   $0xc3,(%rbx)
    5b3f:	74 2f                	je     5b70 <internal_handle_exception+0x270>
    5b41:	49 89 c9             	mov    %rcx,%r9
    5b44:	48 8d 81 00 10 00 00 	lea    0x1000(%rcx),%rax
    5b4b:	eb 10                	jmp    5b5d <internal_handle_exception+0x25d>
    5b4d:	0f 1f 00             	nopl   (%rax)
    5b50:	49 83 c1 01          	add    $0x1,%r9
    5b54:	49 39 c1             	cmp    %rax,%r9
    5b57:	0f 84 6a 01 00 00    	je     5cc7 <internal_handle_exception+0x3c7>
    5b5d:	41 80 39 c3          	cmpb   $0xc3,(%r9)
    5b61:	75 ed                	jne    5b50 <internal_handle_exception+0x250>
    5b63:	44 89 c8             	mov    %r9d,%eax
    5b66:	4c 89 cb             	mov    %r9,%rbx
    5b69:	66 25 ff 0f          	and    $0xfff,%ax
    5b6d:	66 89 02             	mov    %ax,(%rdx)
    5b70:	48 89 da             	mov    %rbx,%rdx
    5b73:	4c 89 e7             	mov    %r12,%rdi
    5b76:	48 89 4d a0          	mov    %rcx,-0x60(%rbp)
    5b7a:	e8 bc da 02 00       	call   3363b <cselect_mitigation_regs>
    5b7f:	48 8d 75 c0          	lea    -0x40(%rbp),%rsi
    5b83:	4c 89 e7             	mov    %r12,%rdi
    5b86:	e8 05 cb ff ff       	call   2690 <ct_decode>
    5b8b:	4d 89 f0             	mov    %r14,%r8
    5b8e:	be 01 00 00 00       	mov    $0x1,%esi
    5b93:	49 83 e0 fe          	and    $0xfffffffffffffffe,%r8
    5b97:	4c 63 c8             	movslq %eax,%r9
    5b9a:	48 8b 45 c0          	mov    -0x40(%rbp),%rax
    5b9e:	4c 89 c2             	mov    %r8,%rdx
    5ba1:	4c 89 45 a8          	mov    %r8,-0x58(%rbp)
    5ba5:	49 83 f9 01          	cmp    $0x1,%r9
    5ba9:	48 0f 44 d0          	cmove  %rax,%rdx
    5bad:	49 83 f9 02          	cmp    $0x2,%r9
    5bb1:	48 0f 44 d0          	cmove  %rax,%rdx
    5bb5:	48 89 d7             	mov    %rdx,%rdi
    5bb8:	4c 89 4d b0          	mov    %r9,-0x50(%rbp)
    5bbc:	48 89 55 b8          	mov    %rdx,-0x48(%rbp)
    5bc0:	e8 eb e0 ff ff       	call   3cb0 <sgx_is_within_enclave>
    5bc5:	48 8b 55 b8          	mov    -0x48(%rbp),%rdx
    5bc9:	48 8b 4d a0          	mov    -0x60(%rbp),%rcx
    5bcd:	4c 8b 45 a8          	mov    -0x58(%rbp),%r8
    5bd1:	85 c0                	test   %eax,%eax
    5bd3:	4c 8b 4d b0          	mov    -0x50(%rbp),%r9
    5bd7:	48 98                	cltq   
    5bd9:	4c 0f 45 c2          	cmovne %rdx,%r8
    5bdd:	48 89 ca             	mov    %rcx,%rdx
    5be0:	48 83 ca 01          	or     $0x1,%rdx
    5be4:	49 83 f9 02          	cmp    $0x2,%r9
    5be8:	48 0f 44 ca          	cmove  %rdx,%rcx
    5bec:	48 89 ca             	mov    %rcx,%rdx
    5bef:	48 83 e2 fe          	and    $0xfffffffffffffffe,%rdx
    5bf3:	48 83 f8 01          	cmp    $0x1,%rax
    5bf7:	48 0f 44 d1          	cmove  %rcx,%rdx
    5bfb:	41 83 af bc 00 00 00 	subl   $0x1,0xbc(%r15)
    5c02:	01 
    5c03:	78 65                	js     5c6a <internal_handle_exception+0x36a>
    5c05:	41 8b 8f b8 00 00 00 	mov    0xb8(%r15),%ecx
    5c0c:	49 8b 77 20          	mov    0x20(%r15),%rsi
    5c10:	49 89 d9             	mov    %rbx,%r9
    5c13:	4c 89 e7             	mov    %r12,%rdi
    5c16:	89 c8                	mov    %ecx,%eax
    5c18:	c1 e1 04             	shl    $0x4,%ecx
    5c1b:	48 81 c6 a7 00 00 00 	add    $0xa7,%rsi
    5c22:	d1 e8                	shr    %eax
    5c24:	83 e1 10             	and    $0x10,%ecx
    5c27:	41 89 87 b8 00 00 00 	mov    %eax,0xb8(%r15)
    5c2e:	48 09 d1             	or     %rdx,%rcx
    5c31:	4c 89 f2             	mov    %r14,%rdx
    5c34:	e8 2e db 02 00       	call   33767 <constant_time_apply_sgxstep_mitigation_and_continue_execution>
    5c39:	e9 74 fe ff ff       	jmp    5ab2 <internal_handle_exception+0x1b2>
    5c3e:	48 89 df             	mov    %rbx,%rdi
    5c41:	e8 6a 4c 00 00       	call   a8b0 <sgx_spin_unlock>
    5c46:	49 c7 45 78 ff ff ff 	movq   $0xffffffffffffffff,0x78(%r13)
    5c4d:	ff 
    5c4e:	e9 44 fe ff ff       	jmp    5a97 <internal_handle_exception+0x197>
    5c53:	49 8b 7c 24 20       	mov    0x20(%r12),%rdi
    5c58:	e8 83 fb ff ff       	call   57e0 <is_valid_sp>
    5c5d:	84 c0                	test   %al,%al
    5c5f:	0f 84 4d fe ff ff    	je     5ab2 <internal_handle_exception+0x1b2>
    5c65:	e9 2d fe ff ff       	jmp    5a97 <internal_handle_exception+0x197>
    5c6a:	49 8d bf b8 00 00 00 	lea    0xb8(%r15),%rdi
    5c71:	48 89 55 b0          	mov    %rdx,-0x50(%rbp)
    5c75:	4c 89 45 b8          	mov    %r8,-0x48(%rbp)
    5c79:	e8 9f e0 02 00       	call   33d1d <do_rdrand>
    5c7e:	4c 8b 45 b8          	mov    -0x48(%rbp),%r8
    5c82:	48 8b 55 b0          	mov    -0x50(%rbp),%rdx
    5c86:	85 c0                	test   %eax,%eax
    5c88:	74 49                	je     5cd3 <internal_handle_exception+0x3d3>
    5c8a:	41 c7 87 bc 00 00 00 	movl   $0x1f,0xbc(%r15)
    5c91:	1f 00 00 00 
    5c95:	e9 6b ff ff ff       	jmp    5c05 <internal_handle_exception+0x305>
    5c9a:	48 81 e3 00 f0 ff ff 	and    $0xfffffffffffff000,%rbx
    5ca1:	4c 39 f3             	cmp    %r14,%rbx
    5ca4:	0f 84 6c fe ff ff    	je     5b16 <internal_handle_exception+0x216>
    5caa:	49 81 ee 00 10 00 00 	sub    $0x1000,%r14
    5cb1:	49 83 ce 01          	or     $0x1,%r14
    5cb5:	e9 5c fe ff ff       	jmp    5b16 <internal_handle_exception+0x216>
    5cba:	48 89 df             	mov    %rbx,%rdi
    5cbd:	e8 ee 4b 00 00       	call   a8b0 <sgx_spin_unlock>
    5cc2:	e9 eb fd ff ff       	jmp    5ab2 <internal_handle_exception+0x1b2>
    5cc7:	48 8d 1d 32 dc 02 00 	lea    0x2dc32(%rip),%rbx        # 33900 <__ct_mitigation_ret>
    5cce:	e9 9d fe ff ff       	jmp    5b70 <internal_handle_exception+0x270>
    5cd3:	49 c7 47 78 ff ff ff 	movq   $0xffffffffffffffff,0x78(%r15)
    5cda:	ff 
    5cdb:	e8 60 e0 02 00       	call   33d40 <abort>

0000000000005ce0 <sgx_register_exception_handler>:
    5ce0:	f3 0f 1e fa          	endbr64 
    5ce4:	41 55                	push   %r13
    5ce6:	41 54                	push   %r12
    5ce8:	55                   	push   %rbp
    5ce9:	89 fd                	mov    %edi,%ebp
    5ceb:	53                   	push   %rbx
    5cec:	48 89 f3             	mov    %rsi,%rbx
    5cef:	48 83 ec 18          	sub    $0x18,%rsp
    5cf3:	64 48 8b 04 25 28 00 	mov    %fs:0x28,%rax
    5cfa:	00 00 
    5cfc:	48 89 44 24 08       	mov    %rax,0x8(%rsp)
    5d01:	31 c0                	xor    %eax,%eax
    5d03:	48 83 3d 15 9f 03 00 	cmpq   $0x0,0x39f15(%rip)        # 3fc20 <_ZL12g_veh_cookie>
    5d0a:	00 
    5d0b:	0f 84 af 00 00 00    	je     5dc0 <sgx_register_exception_handler+0xe0>
    5d11:	31 f6                	xor    %esi,%esi
    5d13:	48 89 df             	mov    %rbx,%rdi
    5d16:	e8 95 df ff ff       	call   3cb0 <sgx_is_within_enclave>
    5d1b:	85 c0                	test   %eax,%eax
    5d1d:	0f 84 cd 00 00 00    	je     5df0 <sgx_register_exception_handler+0x110>
    5d23:	bf 10 00 00 00       	mov    $0x10,%edi
    5d28:	e8 a3 54 00 00       	call   b1d0 <dlmalloc>
    5d2d:	49 89 c4             	mov    %rax,%r12
    5d30:	48 85 c0             	test   %rax,%rax
    5d33:	0f 84 b7 00 00 00    	je     5df0 <sgx_register_exception_handler+0x110>
    5d39:	48 33 1d e0 9e 03 00 	xor    0x39ee0(%rip),%rbx        # 3fc20 <_ZL12g_veh_cookie>
    5d40:	4c 8d 2d e1 9e 03 00 	lea    0x39ee1(%rip),%r13        # 3fc28 <_ZL14g_handler_lock>
    5d47:	48 89 18             	mov    %rbx,(%rax)
    5d4a:	4c 89 ef             	mov    %r13,%rdi
    5d4d:	e8 be 4a 00 00       	call   a810 <sgx_spin_lock>
    5d52:	48 8b 15 d7 9e 03 00 	mov    0x39ed7(%rip),%rdx        # 3fc30 <_ZL12g_first_node>
    5d59:	48 85 d2             	test   %rdx,%rdx
    5d5c:	74 2a                	je     5d88 <sgx_register_exception_handler+0xa8>
    5d5e:	85 ed                	test   %ebp,%ebp
    5d60:	75 26                	jne    5d88 <sgx_register_exception_handler+0xa8>
    5d62:	66 0f 1f 44 00 00    	nopw   0x0(%rax,%rax,1)
    5d68:	48 89 d0             	mov    %rdx,%rax
    5d6b:	48 8b 52 08          	mov    0x8(%rdx),%rdx
    5d6f:	48 85 d2             	test   %rdx,%rdx
    5d72:	75 f4                	jne    5d68 <sgx_register_exception_handler+0x88>
    5d74:	49 c7 44 24 08 00 00 	movq   $0x0,0x8(%r12)
    5d7b:	00 00 
    5d7d:	4c 89 60 08          	mov    %r12,0x8(%rax)
    5d81:	eb 11                	jmp    5d94 <sgx_register_exception_handler+0xb4>
    5d83:	0f 1f 44 00 00       	nopl   0x0(%rax,%rax,1)
    5d88:	49 89 54 24 08       	mov    %rdx,0x8(%r12)
    5d8d:	4c 89 25 9c 9e 03 00 	mov    %r12,0x39e9c(%rip)        # 3fc30 <_ZL12g_first_node>
    5d94:	4c 89 ef             	mov    %r13,%rdi
    5d97:	e8 14 4b 00 00       	call   a8b0 <sgx_spin_unlock>
    5d9c:	48 8b 44 24 08       	mov    0x8(%rsp),%rax
    5da1:	64 48 2b 04 25 28 00 	sub    %fs:0x28,%rax
    5da8:	00 00 
    5daa:	75 7d                	jne    5e29 <sgx_register_exception_handler+0x149>
    5dac:	48 83 c4 18          	add    $0x18,%rsp
    5db0:	4c 89 e0             	mov    %r12,%rax
    5db3:	5b                   	pop    %rbx
    5db4:	5d                   	pop    %rbp
    5db5:	41 5c                	pop    %r12
    5db7:	41 5d                	pop    %r13
    5db9:	c3                   	ret    
    5dba:	66 0f 1f 44 00 00    	nopw   0x0(%rax,%rax,1)
    5dc0:	48 c7 04 24 00 00 00 	movq   $0x0,(%rsp)
    5dc7:	00 
    5dc8:	49 89 e4             	mov    %rsp,%r12
    5dcb:	eb 0a                	jmp    5dd7 <sgx_register_exception_handler+0xf7>
    5dcd:	0f 1f 00             	nopl   (%rax)
    5dd0:	48 83 3c 24 00       	cmpq   $0x0,(%rsp)
    5dd5:	75 21                	jne    5df8 <sgx_register_exception_handler+0x118>
    5dd7:	be 08 00 00 00       	mov    $0x8,%esi
    5ddc:	4c 89 e7             	mov    %r12,%rdi
    5ddf:	e8 bc e0 ff ff       	call   3ea0 <sgx_read_rand>
    5de4:	85 c0                	test   %eax,%eax
    5de6:	74 e8                	je     5dd0 <sgx_register_exception_handler+0xf0>
    5de8:	0f 1f 84 00 00 00 00 	nopl   0x0(%rax,%rax,1)
    5def:	00 
    5df0:	45 31 e4             	xor    %r12d,%r12d
    5df3:	eb a7                	jmp    5d9c <sgx_register_exception_handler+0xbc>
    5df5:	0f 1f 00             	nopl   (%rax)
    5df8:	4c 8d 2d 29 9e 03 00 	lea    0x39e29(%rip),%r13        # 3fc28 <_ZL14g_handler_lock>
    5dff:	4c 89 ef             	mov    %r13,%rdi
    5e02:	e8 09 4a 00 00       	call   a810 <sgx_spin_lock>
    5e07:	48 83 3d 11 9e 03 00 	cmpq   $0x0,0x39e11(%rip)        # 3fc20 <_ZL12g_veh_cookie>
    5e0e:	00 
    5e0f:	75 0b                	jne    5e1c <sgx_register_exception_handler+0x13c>
    5e11:	48 8b 04 24          	mov    (%rsp),%rax
    5e15:	48 89 05 04 9e 03 00 	mov    %rax,0x39e04(%rip)        # 3fc20 <_ZL12g_veh_cookie>
    5e1c:	4c 89 ef             	mov    %r13,%rdi
    5e1f:	e8 8c 4a 00 00       	call   a8b0 <sgx_spin_unlock>
    5e24:	e9 e8 fe ff ff       	jmp    5d11 <sgx_register_exception_handler+0x31>
    5e29:	e8 22 8a 00 00       	call   e850 <__stack_chk_fail>
    5e2e:	66 90                	xchg   %ax,%ax

0000000000005e30 <sgx_unregister_exception_handler>:
    5e30:	f3 0f 1e fa          	endbr64 
    5e34:	31 c0                	xor    %eax,%eax
    5e36:	48 85 ff             	test   %rdi,%rdi
    5e39:	74 5d                	je     5e98 <sgx_unregister_exception_handler+0x68>
    5e3b:	41 54                	push   %r12
    5e3d:	4c 8d 25 e4 9d 03 00 	lea    0x39de4(%rip),%r12        # 3fc28 <_ZL14g_handler_lock>
    5e44:	55                   	push   %rbp
    5e45:	48 89 fd             	mov    %rdi,%rbp
    5e48:	4c 89 e7             	mov    %r12,%rdi
    5e4b:	48 83 ec 08          	sub    $0x8,%rsp
    5e4f:	e8 bc 49 00 00       	call   a810 <sgx_spin_lock>
    5e54:	48 8b 05 d5 9d 03 00 	mov    0x39dd5(%rip),%rax        # 3fc30 <_ZL12g_first_node>
    5e5b:	48 85 c0             	test   %rax,%rax
    5e5e:	74 21                	je     5e81 <sgx_unregister_exception_handler+0x51>
    5e60:	48 39 e8             	cmp    %rbp,%rax
    5e63:	75 10                	jne    5e75 <sgx_unregister_exception_handler+0x45>
    5e65:	eb 61                	jmp    5ec8 <sgx_unregister_exception_handler+0x98>
    5e67:	66 0f 1f 84 00 00 00 	nopw   0x0(%rax,%rax,1)
    5e6e:	00 00 
    5e70:	48 39 e8             	cmp    %rbp,%rax
    5e73:	74 2b                	je     5ea0 <sgx_unregister_exception_handler+0x70>
    5e75:	48 89 c2             	mov    %rax,%rdx
    5e78:	48 8b 40 08          	mov    0x8(%rax),%rax
    5e7c:	48 85 c0             	test   %rax,%rax
    5e7f:	75 ef                	jne    5e70 <sgx_unregister_exception_handler+0x40>
    5e81:	4c 89 e7             	mov    %r12,%rdi
    5e84:	e8 27 4a 00 00       	call   a8b0 <sgx_spin_unlock>
    5e89:	48 83 c4 08          	add    $0x8,%rsp
    5e8d:	31 c0                	xor    %eax,%eax
    5e8f:	5d                   	pop    %rbp
    5e90:	41 5c                	pop    %r12
    5e92:	c3                   	ret    
    5e93:	0f 1f 44 00 00       	nopl   0x0(%rax,%rax,1)
    5e98:	c3                   	ret    
    5e99:	0f 1f 80 00 00 00 00 	nopl   0x0(%rax)
    5ea0:	48 8b 45 08          	mov    0x8(%rbp),%rax
    5ea4:	4c 89 e7             	mov    %r12,%rdi
    5ea7:	48 89 42 08          	mov    %rax,0x8(%rdx)
    5eab:	e8 00 4a 00 00       	call   a8b0 <sgx_spin_unlock>
    5eb0:	48 89 ef             	mov    %rbp,%rdi
    5eb3:	e8 f8 6f 00 00       	call   ceb0 <dlfree>
    5eb8:	48 83 c4 08          	add    $0x8,%rsp
    5ebc:	b8 01 00 00 00       	mov    $0x1,%eax
    5ec1:	5d                   	pop    %rbp
    5ec2:	41 5c                	pop    %r12
    5ec4:	c3                   	ret    
    5ec5:	0f 1f 00             	nopl   (%rax)
    5ec8:	48 8b 45 08          	mov    0x8(%rbp),%rax
    5ecc:	4c 89 e7             	mov    %r12,%rdi
    5ecf:	48 89 05 5a 9d 03 00 	mov    %rax,0x39d5a(%rip)        # 3fc30 <_ZL12g_first_node>
    5ed6:	e8 d5 49 00 00       	call   a8b0 <sgx_spin_unlock>
    5edb:	eb d3                	jmp    5eb0 <sgx_unregister_exception_handler+0x80>
    5edd:	0f 1f 00             	nopl   (%rax)

0000000000005ee0 <trts_handle_exception>:
    5ee0:	f3 0f 1e fa          	endbr64 
    5ee4:	41 57                	push   %r15
    5ee6:	41 56                	push   %r14
    5ee8:	41 55                	push   %r13
    5eea:	41 54                	push   %r12
    5eec:	55                   	push   %rbp
    5eed:	53                   	push   %rbx
    5eee:	48 89 fb             	mov    %rdi,%rbx
    5ef1:	48 83 ec 08          	sub    $0x8,%rsp
    5ef5:	e8 52 da 02 00       	call   3394c <get_thread_data>
    5efa:	48 85 c0             	test   %rax,%rax
    5efd:	48 89 c5             	mov    %rax,%rbp
    5f00:	0f 94 c2             	sete   %dl
    5f03:	48 85 db             	test   %rbx,%rbx
    5f06:	0f 94 c0             	sete   %al
    5f09:	08 c2                	or     %al,%dl
    5f0b:	75 33                	jne    5f40 <trts_handle_exception+0x60>
    5f0d:	48 89 df             	mov    %rbx,%rdi
    5f10:	41 89 d4             	mov    %edx,%r12d
    5f13:	e8 a8 e0 ff ff       	call   3fc0 <check_static_stack_canary>
    5f18:	85 c0                	test   %eax,%eax
    5f1a:	75 24                	jne    5f40 <trts_handle_exception+0x60>
    5f1c:	e8 ec d9 02 00       	call   3390d <get_enclave_state>
    5f21:	83 f8 02             	cmp    $0x2,%eax
    5f24:	75 1a                	jne    5f40 <trts_handle_exception+0x60>
    5f26:	48 83 7d 78 ff       	cmpq   $0xffffffffffffffff,0x78(%rbp)
    5f2b:	74 13                	je     5f40 <trts_handle_exception+0x60>
    5f2d:	48 8b 45 10          	mov    0x10(%rbp),%rax
    5f31:	48 05 00 04 01 00    	add    $0x10400,%rax
    5f37:	48 39 c3             	cmp    %rax,%rbx
    5f3a:	74 24                	je     5f60 <trts_handle_exception+0x80>
    5f3c:	0f 1f 40 00          	nopl   0x0(%rax)
    5f40:	bf 03 00 00 00       	mov    $0x3,%edi
    5f45:	e8 d4 d9 02 00       	call   3391e <set_enclave_state>
    5f4a:	b8 06 10 00 00       	mov    $0x1006,%eax
    5f4f:	48 83 c4 08          	add    $0x8,%rsp
    5f53:	5b                   	pop    %rbx
    5f54:	5d                   	pop    %rbp
    5f55:	41 5c                	pop    %r12
    5f57:	41 5d                	pop    %r13
    5f59:	41 5e                	pop    %r14
    5f5b:	41 5f                	pop    %r15
    5f5d:	c3                   	ret    
    5f5e:	66 90                	xchg   %ax,%ax
    5f60:	4c 8b 6d 20          	mov    0x20(%rbp),%r13
    5f64:	e8 47 f9 ff ff       	call   58b0 <get_xsave_size>
    5f69:	48 05 b7 10 00 00    	add    $0x10b7,%rax
    5f6f:	49 81 e5 00 f0 ff ff 	and    $0xfffffffffffff000,%r13
    5f76:	48 25 00 f0 ff ff    	and    $0xfffffffffffff000,%rax
    5f7c:	49 29 c5             	sub    %rax,%r13
    5f7f:	4c 39 eb             	cmp    %r13,%rbx
    5f82:	75 bc                	jne    5f40 <trts_handle_exception+0x60>
    5f84:	48 8b 5d 20          	mov    0x20(%rbp),%rbx
    5f88:	be 08 00 00 00       	mov    $0x8,%esi
    5f8d:	4c 8b b3 90 00 00 00 	mov    0x90(%rbx),%r14
    5f94:	4c 89 f7             	mov    %r14,%rdi
    5f97:	e8 74 dd ff ff       	call   3d10 <sgx_is_outside_enclave>
    5f9c:	85 c0                	test   %eax,%eax
    5f9e:	0f 84 fc 01 00 00    	je     61a0 <trts_handle_exception+0x2c0>
    5fa4:	4c 8b 6b 20          	mov    0x20(%rbx),%r13
    5fa8:	4d 39 ee             	cmp    %r13,%r14
    5fab:	0f 84 ef 01 00 00    	je     61a0 <trts_handle_exception+0x2c0>
    5fb1:	31 f6                	xor    %esi,%esi
    5fb3:	4c 89 ef             	mov    %r13,%rdi
    5fb6:	e8 e5 f7 ff ff       	call   57a0 <is_stack_addr>
    5fbb:	84 c0                	test   %al,%al
    5fbd:	0f 84 dd 01 00 00    	je     61a0 <trts_handle_exception+0x2c0>
    5fc3:	48 8b 45 38          	mov    0x38(%rbp),%rax
    5fc7:	48 8d b0 88 01 00 00 	lea    0x188(%rax),%rsi
    5fce:	49 29 f5             	sub    %rsi,%r13
    5fd1:	49 83 e5 c0          	and    $0xffffffffffffffc0,%r13
    5fd5:	4c 89 ef             	mov    %r13,%rdi
    5fd8:	e8 c3 f7 ff ff       	call   57a0 <is_stack_addr>
    5fdd:	84 c0                	test   %al,%al
    5fdf:	0f 84 bb 01 00 00    	je     61a0 <trts_handle_exception+0x2c0>
    5fe5:	4d 8d 7d f8          	lea    -0x8(%r13),%r15
    5fe9:	be 08 00 00 00       	mov    $0x8,%esi
    5fee:	4c 89 ff             	mov    %r15,%rdi
    5ff1:	e8 aa f7 ff ff       	call   57a0 <is_stack_addr>
    5ff6:	41 89 c6             	mov    %eax,%r14d
    5ff9:	84 c0                	test   %al,%al
    5ffb:	0f 84 9f 01 00 00    	je     61a0 <trts_handle_exception+0x2c0>
    6001:	48 8b bd b0 00 00 00 	mov    0xb0(%rbp),%rdi
    6008:	4c 39 ff             	cmp    %r15,%rdi
    600b:	0f 86 a3 01 00 00    	jbe    61b4 <trts_handle_exception+0x2d4>
    6011:	4c 8d a7 ff 0f 00 00 	lea    0xfff(%rdi),%r12
    6018:	4d 29 fc             	sub    %r15,%r12
    601b:	49 81 e4 00 f0 ff ff 	and    $0xfffffffffffff000,%r12
    6022:	4c 39 e7             	cmp    %r12,%rdi
    6025:	0f 86 75 01 00 00    	jbe    61a0 <trts_handle_exception+0x2c0>
    602b:	4c 29 e7             	sub    %r12,%rdi
    602e:	48 3b 7d 18          	cmp    0x18(%rbp),%rdi
    6032:	0f 82 68 01 00 00    	jb     61a0 <trts_handle_exception+0x2c0>
    6038:	4d 85 e4             	test   %r12,%r12
    603b:	0f 84 5f 01 00 00    	je     61a0 <trts_handle_exception+0x2c0>
    6041:	48 85 ff             	test   %rdi,%rdi
    6044:	0f 84 56 01 00 00    	je     61a0 <trts_handle_exception+0x2c0>
    604a:	4c 89 e6             	mov    %r12,%rsi
    604d:	e8 8e 3a 00 00       	call   9ae0 <mm_commit>
    6052:	85 c0                	test   %eax,%eax
    6054:	0f 85 46 01 00 00    	jne    61a0 <trts_handle_exception+0x2c0>
    605a:	48 8d 05 9b 5c 03 00 	lea    0x35c9b(%rip),%rax        # 3bcfc <g_aexnotify_supported>
    6061:	4c 29 a5 b0 00 00 00 	sub    %r12,0xb0(%rbp)
    6068:	45 89 f4             	mov    %r14d,%r12d
    606b:	8b 08                	mov    (%rax),%ecx
    606d:	31 c0                	xor    %eax,%eax
    606f:	41 89 85 a8 00 00 00 	mov    %eax,0xa8(%r13)
    6076:	0f b6 83 a0 00 00 00 	movzbl 0xa0(%rbx),%eax
    607d:	41 89 85 90 00 00 00 	mov    %eax,0x90(%r13)
    6084:	0f b6 93 a1 00 00 00 	movzbl 0xa1(%rbx),%edx
    608b:	83 e8 0d             	sub    $0xd,%eax
    608e:	83 e2 07             	and    $0x7,%edx
    6091:	41 89 95 94 00 00 00 	mov    %edx,0x94(%r13)
    6098:	48 8b 55 38          	mov    0x38(%rbp),%rdx
    609c:	49 89 95 b0 00 00 00 	mov    %rdx,0xb0(%r13)
    60a3:	48 8b 13             	mov    (%rbx),%rdx
    60a6:	49 89 55 00          	mov    %rdx,0x0(%r13)
    60aa:	48 8b 53 08          	mov    0x8(%rbx),%rdx
    60ae:	49 89 55 08          	mov    %rdx,0x8(%r13)
    60b2:	48 8b 53 10          	mov    0x10(%rbx),%rdx
    60b6:	49 89 55 10          	mov    %rdx,0x10(%r13)
    60ba:	48 8b 53 18          	mov    0x18(%rbx),%rdx
    60be:	49 89 55 18          	mov    %rdx,0x18(%r13)
    60c2:	48 8b 53 20          	mov    0x20(%rbx),%rdx
    60c6:	49 89 55 20          	mov    %rdx,0x20(%r13)
    60ca:	48 8b 53 28          	mov    0x28(%rbx),%rdx
    60ce:	49 89 55 28          	mov    %rdx,0x28(%r13)
    60d2:	48 8b 53 30          	mov    0x30(%rbx),%rdx
    60d6:	49 89 55 30          	mov    %rdx,0x30(%r13)
    60da:	48 8b 53 38          	mov    0x38(%rbx),%rdx
    60de:	49 89 55 38          	mov    %rdx,0x38(%r13)
    60e2:	48 8b 93 80 00 00 00 	mov    0x80(%rbx),%rdx
    60e9:	49 89 95 80 00 00 00 	mov    %rdx,0x80(%r13)
    60f0:	48 8b 93 88 00 00 00 	mov    0x88(%rbx),%rdx
    60f7:	49 89 95 88 00 00 00 	mov    %rdx,0x88(%r13)
    60fe:	48 8b 73 40          	mov    0x40(%rbx),%rsi
    6102:	49 89 75 40          	mov    %rsi,0x40(%r13)
    6106:	48 8b 73 48          	mov    0x48(%rbx),%rsi
    610a:	49 89 75 48          	mov    %rsi,0x48(%r13)
    610e:	48 8b 73 50          	mov    0x50(%rbx),%rsi
    6112:	49 89 75 50          	mov    %rsi,0x50(%r13)
    6116:	48 8b 73 58          	mov    0x58(%rbx),%rsi
    611a:	49 89 75 58          	mov    %rsi,0x58(%r13)
    611e:	48 8b 73 60          	mov    0x60(%rbx),%rsi
    6122:	49 89 75 60          	mov    %rsi,0x60(%r13)
    6126:	48 8b 73 68          	mov    0x68(%rbx),%rsi
    612a:	49 89 75 68          	mov    %rsi,0x68(%r13)
    612e:	48 8b 73 70          	mov    0x70(%rbx),%rsi
    6132:	49 89 75 70          	mov    %rsi,0x70(%r13)
    6136:	48 8b 73 78          	mov    0x78(%rbx),%rsi
    613a:	49 89 75 78          	mov    %rsi,0x78(%r13)
    613e:	83 f8 01             	cmp    $0x1,%eax
    6141:	77 15                	ja     6158 <trts_handle_exception+0x278>
    6143:	48 8b 43 f0          	mov    -0x10(%rbx),%rax
    6147:	49 89 85 98 00 00 00 	mov    %rax,0x98(%r13)
    614e:	8b 43 f8             	mov    -0x8(%rbx),%eax
    6151:	41 89 85 a0 00 00 00 	mov    %eax,0xa0(%r13)
    6158:	85 c9                	test   %ecx,%ecx
    615a:	0f 84 99 00 00 00    	je     61f9 <trts_handle_exception+0x319>
    6160:	49 89 55 f8          	mov    %rdx,-0x8(%r13)
    6164:	e8 67 f7 ff ff       	call   58d0 <get_ssa_aexnotify>
    6169:	48 8b 7d 58          	mov    0x58(%rbp),%rdi
    616d:	41 89 85 ac 00 00 00 	mov    %eax,0xac(%r13)
    6174:	e8 18 d3 02 00       	call   33491 <restore_xregs>
    6179:	41 83 bd ac 00 00 00 	cmpl   $0x1,0xac(%r13)
    6180:	01 
    6181:	0f 84 ef 00 00 00    	je     6276 <trts_handle_exception+0x396>
    6187:	48 8d 15 72 f7 ff ff 	lea    -0x88e(%rip),%rdx        # 5900 <internal_handle_exception>
    618e:	4c 89 fe             	mov    %r15,%rsi
    6191:	4c 89 ef             	mov    %r13,%rdi
    6194:	e8 20 dc 02 00       	call   33db9 <second_phase>
    6199:	e9 a2 fd ff ff       	jmp    5f40 <trts_handle_exception+0x60>
    619e:	66 90                	xchg   %ax,%ax
    61a0:	bf 03 00 00 00       	mov    $0x3,%edi
    61a5:	e8 74 d7 02 00       	call   3391e <set_enclave_state>
    61aa:	b8 09 10 00 00       	mov    $0x1009,%eax
    61af:	e9 9b fd ff ff       	jmp    5f4f <trts_handle_exception+0x6f>
    61b4:	48 8d 15 41 5b 03 00 	lea    0x35b41(%rip),%rdx        # 3bcfc <g_aexnotify_supported>
    61bb:	48 8b 83 88 00 00 00 	mov    0x88(%rbx),%rax
    61c2:	48 3b 05 17 5e 03 00 	cmp    0x35e17(%rip),%rax        # 3bfe0 <_GLOBAL_OFFSET_TABLE_+0x30>
    61c9:	8b 0a                	mov    (%rdx),%ecx
    61cb:	74 5c                	je     6229 <trts_handle_exception+0x349>
    61cd:	48 3b 05 fc 5d 03 00 	cmp    0x35dfc(%rip),%rax        # 3bfd0 <_GLOBAL_OFFSET_TABLE_+0x20>
    61d4:	74 76                	je     624c <trts_handle_exception+0x36c>
    61d6:	85 c9                	test   %ecx,%ecx
    61d8:	75 0d                	jne    61e7 <trts_handle_exception+0x307>
    61da:	80 bb a3 00 00 00 00 	cmpb   $0x0,0xa3(%rbx)
    61e1:	0f 89 59 fd ff ff    	jns    5f40 <trts_handle_exception+0x60>
    61e7:	0f b6 83 a3 00 00 00 	movzbl 0xa3(%rbx),%eax
    61ee:	c0 e8 07             	shr    $0x7,%al
    61f1:	0f b6 c0             	movzbl %al,%eax
    61f4:	e9 76 fe ff ff       	jmp    606f <trts_handle_exception+0x18f>
    61f9:	45 84 e4             	test   %r12b,%r12b
    61fc:	75 20                	jne    621e <trts_handle_exception+0x33e>
    61fe:	48 8d 05 fb f6 ff ff 	lea    -0x905(%rip),%rax        # 5900 <internal_handle_exception>
    6205:	4c 89 7b 20          	mov    %r15,0x20(%rbx)
    6209:	48 89 83 88 00 00 00 	mov    %rax,0x88(%rbx)
    6210:	4c 89 2b             	mov    %r13,(%rbx)
    6213:	4c 89 6b 38          	mov    %r13,0x38(%rbx)
    6217:	49 8b 95 88 00 00 00 	mov    0x88(%r13),%rdx
    621e:	49 89 55 f8          	mov    %rdx,-0x8(%r13)
    6222:	31 c0                	xor    %eax,%eax
    6224:	e9 26 fd ff ff       	jmp    5f4f <trts_handle_exception+0x6f>
    6229:	48 83 3b 00          	cmpq   $0x0,(%rbx)
    622d:	75 9e                	jne    61cd <trts_handle_exception+0x2ed>
    622f:	48 83 c0 03          	add    $0x3,%rax
    6233:	48 83 8b 80 00 00 00 	orq    $0x1,0x80(%rbx)
    623a:	01 
    623b:	45 89 f4             	mov    %r14d,%r12d
    623e:	48 89 83 88 00 00 00 	mov    %rax,0x88(%rbx)
    6245:	31 c0                	xor    %eax,%eax
    6247:	e9 23 fe ff ff       	jmp    606f <trts_handle_exception+0x18f>
    624c:	48 83 3b 08          	cmpq   $0x8,(%rbx)
    6250:	75 84                	jne    61d6 <trts_handle_exception+0x2f6>
    6252:	48 83 c0 03          	add    $0x3,%rax
    6256:	48 83 8b 80 00 00 00 	orq    $0x40,0x80(%rbx)
    625d:	40 
    625e:	45 89 f4             	mov    %r14d,%r12d
    6261:	48 89 83 88 00 00 00 	mov    %rax,0x88(%rbx)
    6268:	31 c0                	xor    %eax,%eax
    626a:	48 c7 03 01 00 00 00 	movq   $0x1,(%rbx)
    6271:	e9 f9 fd ff ff       	jmp    606f <trts_handle_exception+0x18f>
    6276:	31 ff                	xor    %edi,%edi
    6278:	e8 43 e4 ff ff       	call   46c0 <sgx_set_ssa_aexnotify>
    627d:	e9 05 ff ff ff       	jmp    6187 <trts_handle_exception+0x2a7>
    6282:	66 2e 0f 1f 84 00 00 	cs nopw 0x0(%rax,%rax,1)
    6289:	00 00 00 
    628c:	0f 1f 40 00          	nopl   0x0(%rax)

0000000000006290 <get_xfeature_state>:
    6290:	f3 0f 1e fa          	endbr64 
    6294:	48 83 ec 08          	sub    $0x8,%rsp
    6298:	e8 d3 c9 02 00       	call   32c70 <sgx_self_report>
    629d:	31 d2                	xor    %edx,%edx
    629f:	48 8b 40 38          	mov    0x38(%rax),%rax
    62a3:	48 83 f8 03          	cmp    $0x3,%rax
    62a7:	0f 95 c2             	setne  %dl
    62aa:	89 15 38 99 03 00    	mov    %edx,0x39938(%rip)        # 3fbe8 <g_xsave_enabled>
    62b0:	48 83 c4 08          	add    $0x8,%rsp
    62b4:	c3                   	ret    
    62b5:	66 2e 0f 1f 84 00 00 	cs nopw 0x0(%rax,%rax,1)
    62bc:	00 00 00 
    62bf:	90                   	nop

00000000000062c0 <has_text_relo>:
    62c0:	85 d2                	test   %edx,%edx
    62c2:	74 5b                	je     631f <has_text_relo+0x5f>
    62c4:	89 d2                	mov    %edx,%edx
    62c6:	48 8d 04 d5 00 00 00 	lea    0x0(,%rdx,8),%rax
    62cd:	00 
    62ce:	48 29 d0             	sub    %rdx,%rax
    62d1:	48 8d 04 c6          	lea    (%rsi,%rax,8),%rax
    62d5:	eb 12                	jmp    62e9 <has_text_relo+0x29>
    62d7:	66 0f 1f 84 00 00 00 	nopw   0x0(%rax,%rax,1)
    62de:	00 00 
    62e0:	48 83 c6 38          	add    $0x38,%rsi
    62e4:	48 39 c6             	cmp    %rax,%rsi
    62e7:	74 36                	je     631f <has_text_relo+0x5f>
    62e9:	83 3e 02             	cmpl   $0x2,(%rsi)
    62ec:	75 f2                	jne    62e0 <has_text_relo+0x20>
    62ee:	48 8b 56 20          	mov    0x20(%rsi),%rdx
    62f2:	48 03 7e 18          	add    0x18(%rsi),%rdi
    62f6:	48 c1 ea 04          	shr    $0x4,%rdx
    62fa:	74 23                	je     631f <has_text_relo+0x5f>
    62fc:	48 c1 e2 04          	shl    $0x4,%rdx
    6300:	48 01 fa             	add    %rdi,%rdx
    6303:	eb 12                	jmp    6317 <has_text_relo+0x57>
    6305:	0f 1f 00             	nopl   (%rax)
